******************************************************************************
             TMS320C2000 Linker PC v22.6.2                     
******************************************************************************
>> Linked Thu Jan  8 11:32:47 2026

OUTPUT FILE NAME:   <MPR_500kW.out>
ENTRY POINT SYMBOL: "_c_int00"  address: 00339088


MEMORY CONFIGURATION

         name            origin    length      used     unused   attr    fill
----------------------  --------  ---------  --------  --------  ----  --------
PAGE 0:
  RAML0                 00008000   00001000  00000177  00000e89  RWIX
  ZONE7A                00200000   00040000  00000000  00040000  RWIX
  FLASHH                00300000   00008000  00000000  00008000  RWIX
  FLASHG                00308000   00008000  00000000  00008000  RWIX
  FLASHF                00310000   00008000  00000000  00008000  RWIX
  FLASHE                00318000   00008000  00000000  00008000  RWIX
  FLASHD                00320000   00008000  00000177  00007e89  RWIX
  FLASHC                00328000   00008000  00000047  00007fb9  RWIX
  FLASHA                00330000   0000ff80  0000afb3  00004fcd  RWIX
  CSM_RSVD              0033ff80   00000076  00000000  00000076  RWIX
  BEGIN                 0033fff6   00000002  00000002  00000000  RWIX
  CSM_PWL               0033fff8   00000008  00000000  00000008  RWIX
  ADC_CAL               00380080   00000009  00000007  00000002  RWIX
  OTP                   00380400   00000400  00000000  00000400  RWIX
  IQTABLES              003fe000   00000b50  00000b50  00000000  RWIX
  IQTABLES2             003feb50   0000008c  00000000  0000008c  RWIX
  FPUTABLES             003febdc   000006a0  00000000  000006a0  RWIX
  ROM                   003ff27c   00000d44  00000000  00000d44  RWIX
  RESET                 003fffc0   00000002  00000000  00000002  RWIX
  VECTORS               003fffc2   0000003e  00000000  0000003e  RWIX

PAGE 1:
  BOOT_RSVD             00000000   00000050  00000000  00000050  RWIX
  RAMM0                 00000050   000003b0  00000000  000003b0  RWIX
  RAMM1                 00000400   00000400  00000300  00000100  RWIX
  DEV_EMU               00000880   00000180  000000d0  000000b0  RWIX
  FLASH_REGS            00000a80   00000060  00000008  00000058  RWIX
  CSM                   00000ae0   00000010  00000010  00000000  RWIX
  ADC_MIRROR            00000b00   00000010  00000010  00000000  RWIX
  XINTF                 00000b20   00000020  0000001e  00000002  RWIX
  CPU_TIMER0            00000c00   00000008  00000008  00000000  RWIX
  CPU_TIMER1            00000c08   00000008  00000008  00000000  RWIX
  CPU_TIMER2            00000c10   00000008  00000008  00000000  RWIX
  PIE_CTRL              00000ce0   00000020  0000001a  00000006  RWIX
  PIE_VECT              00000d00   00000100  00000100  00000000  RWIX
  DMA                   00001000   00000200  000000e0  00000120  RWIX
  MCBSPA                00005000   00000040  00000025  0000001b  RWIX
  MCBSPB                00005040   00000040  00000025  0000001b  RWIX
  ECANA                 00006000   00000040  00000034  0000000c  RWIX
  ECANA_LAM             00006040   00000040  00000040  00000000  RWIX
  ECANA_MOTS            00006080   00000040  00000040  00000000  RWIX
  ECANA_MOTO            000060c0   00000040  00000040  00000000  RWIX
  ECANA_MBOX            00006100   00000100  00000100  00000000  RWIX
  ECANB                 00006200   00000040  00000034  0000000c  RWIX
  ECANB_LAM             00006240   00000040  00000040  00000000  RWIX
  ECANB_MOTS            00006280   00000040  00000040  00000000  RWIX
  ECANB_MOTO            000062c0   00000040  00000040  00000000  RWIX
  ECANB_MBOX            00006300   00000100  00000100  00000000  RWIX
  EPWM1                 00006800   00000022  00000022  00000000  RWIX
  EPWM2                 00006840   00000022  00000022  00000000  RWIX
  EPWM3                 00006880   00000022  00000022  00000000  RWIX
  EPWM4                 000068c0   00000022  00000022  00000000  RWIX
  EPWM5                 00006900   00000022  00000022  00000000  RWIX
  EPWM6                 00006940   00000022  00000022  00000000  RWIX
  ECAP1                 00006a00   00000020  00000020  00000000  RWIX
  ECAP2                 00006a20   00000020  00000020  00000000  RWIX
  ECAP3                 00006a40   00000020  00000020  00000000  RWIX
  ECAP4                 00006a60   00000020  00000020  00000000  RWIX
  ECAP5                 00006a80   00000020  00000020  00000000  RWIX
  ECAP6                 00006aa0   00000020  00000020  00000000  RWIX
  EQEP1                 00006b00   00000040  00000040  00000000  RWIX
  EQEP2                 00006b40   00000040  00000040  00000000  RWIX
  GPIOCTRL              00006f80   00000040  0000002e  00000012  RWIX
  GPIODAT               00006fc0   00000020  00000020  00000000  RWIX
  GPIOINT               00006fe0   00000020  0000000a  00000016  RWIX
  SYSTEM                00007010   00000020  00000020  00000000  RWIX
  SPIA                  00007040   00000010  00000010  00000000  RWIX
  SCIA                  00007050   00000010  00000010  00000000  RWIX
  XINTRUPT              00007070   00000010  00000010  00000000  RWIX
  ADC                   00007100   00000020  0000001e  00000002  RWIX
  SCIB                  00007750   00000010  00000010  00000000  RWIX
  SCIC                  00007770   00000010  00000010  00000000  RWIX
  I2CA                  00007900   00000040  00000022  0000001e  RWIX
  RAML1                 00009000   00006000  00001bd8  00004428  RWIX
  RAML7A                0000f000   00001000  00000142  00000ebe  RWIX
  ZONE7                 00200000   00100000  00057e60  000a81a0  RWIX
  CSM_PWL               0033fff8   00000008  00000008  00000000  RWIX
  PARTID                00380090   00000001  00000001  00000000  RWIX


SECTION ALLOCATION MAP

 output                                  attributes/
section   page    origin      length       input sections
--------  ----  ----------  ----------   ----------------
ramfuncs   0    00320000    00000177     RUN ADDR = 00008000
                  00320000    00000157     DSP28335_ECanB_Protocol_V1.0.obj (ramfuncs)
                  00320157    0000001b     DSP2833x_SysCtrl.obj (ramfuncs)
                  00320172    00000005     DSP28335EPWM.obj (ramfuncs)

.cinit     0    00339382    0000104d     
                  00339382    00000981     VariableDef.obj (.cinit)
                  00339d03    00000244     Comm_VariableDef.obj (.cinit)
                  00339f47    00000085     Comm_VariableDef.obj (.cinit:_DataLog_ChannelSend)
                  00339fcc    00000085     Comm_VariableDef.obj (.cinit:_DataLog_Trig)
                  0033a051    00000043     Comm_VariableDef.obj (.cinit:_DataLog_AnalogAddr)
                  0033a094    00000043     Comm_VariableDef.obj (.cinit:_DataLog_DigitAddr)
                  0033a0d7    00000026     ParaDefine.obj (.cinit:_GroupCtrl)
                  0033a0fd    00000023     DataLog_V1.11_20160712.obj (.cinit)
                  0033a120    00000023     Comm_VariableDef.obj (.cinit:_DataLog_SaveAnalogCHID)
                  0033a143    00000023     Comm_VariableDef.obj (.cinit:_DataLog_SaveDigitCHBit)
                  0033a166    00000023     Comm_VariableDef.obj (.cinit:_DataLog_SaveDigitCHID)
                  0033a189    00000020     can_agent.obj (.cinit)
                  0033a1a9    0000001b     hal_timer.obj (.cinit)
                  0033a1c4    00000018     ECANA_CH1_NPR_Table_V1.0.obj (.cinit)
                  0033a1dc    00000018     SciBConfig_IO.obj (.cinit)
                  0033a1f4    00000014     hal_can.obj (.cinit)
                  0033a208    00000013     Comm_VariableDef.obj (.cinit:_CANARPDO)
                  0033a21b    00000013     Comm_VariableDef.obj (.cinit:_CANATPDO)
                  0033a22e    00000013     Comm_VariableDef.obj (.cinit:_CANBRPDO)
                  0033a241    00000013     Comm_VariableDef.obj (.cinit:_CANBTPDO)
                  0033a254    00000013     ParaDefine.obj (.cinit:_Monitor_ADDR)
                  0033a267    00000011     ModbusM_Protocol.obj (.cinit)
                  0033a278    00000010     ECANB_Data_Process.obj (.cinit)
                  0033a288    00000010     MCS2MPR_Protocol_V1.0.obj (.cinit)
                  0033a298    00000010     MCS2MPR_Table_V1.0.obj (.cinit)
                  0033a2a8    0000000f     Version_Table.obj (.cinit:_Conv_Type_Ver)
                  0033a2b7    0000000e     rts2800_fpu32.lib : exit.c.obj (.cinit)
                  0033a2c5    0000000d     EventLog_V1.11_20160712.obj (.cinit)
                  0033a2d2    0000000c     DSP28335_ECanA_Protocol_V1.0.obj (.cinit)
                  0033a2de    0000000c     Version_Table.obj (.cinit:_Conv_List_Ver)
                  0033a2ea    0000000b     Comm_VariableDef.obj (.cinit:_DataLog_TrigAnalogAddr)
                  0033a2f5    0000000b     Comm_VariableDef.obj (.cinit:_DataLog_TrigDigitAddr)
                  0033a300    0000000a     Version_Table.obj (.cinit:_RTM_File_Ver)
                  0033a30a    0000000a     Version_Table.obj (.cinit:_Soft_Ver)
                  0033a314    00000008     CurrHarmCtrl.obj (.cinit)
                  0033a31c    00000008     DSP28335_ECanB_Protocol_V1.0.obj (.cinit)
                  0033a324    00000008     Flash_Comm_V1.10.obj (.cinit)
                  0033a32c    00000007     Comm_VariableDef.obj (.cinit:_DataLog_TrigAnalogCHID)
                  0033a333    00000007     Comm_VariableDef.obj (.cinit:_DataLog_TrigAnalogCHThr)
                  0033a33a    00000007     Comm_VariableDef.obj (.cinit:_DataLog_TrigAnalogValueOld)
                  0033a341    00000007     Comm_VariableDef.obj (.cinit:_DataLog_TrigDigitCHBit)
                  0033a348    00000007     Comm_VariableDef.obj (.cinit:_DataLog_TrigDigitCHID)
                  0033a34f    00000007     Version_Table.obj (.cinit:_FPGA_Ver)
                  0033a356    00000007     RTU_ParaDefine.obj (.cinit:_RTUGroup)
                  0033a35d    00000005     VariableDef.obj (.cinit:_ResSample)
                  0033a362    00000005     hal_can.obj (.cinit:_SpCAN_CallbackTx)
                  0033a367    00000005     VariableDef.obj (.cinit:_TemprCalc)
                  0033a36c    00000005     VariableDef.obj (.cinit:_VolSample)
                  0033a371    00000005     rts2800_fpu32.lib : _lock.c.obj (.cinit:__lock)
                  0033a376    00000005                       : _lock.c.obj (.cinit:__unlock)
                  0033a37b    00000005     Main.obj (.cinit:_fCycBuf)
                  0033a380    00000005     Main.obj (.cinit:_fIsrBuf)
                  0033a385    00000005     Main.obj (.cinit:_lCycBuf)
                  0033a38a    00000005     Main.obj (.cinit:_lIsrBuf)
                  0033a38f    00000005     can_app.obj (.cinit)
                  0033a394    00000005     section_cabinet.obj (.cinit)
                  0033a399    00000004     EEPROM_APP_V1.04_20150513.obj (.cinit)
                  0033a39d    00000004     ParaDefine.obj (.cinit)
                  0033a3a1    00000004     RTU_ParaDefine.obj (.cinit)
                  0033a3a5    00000004     Sci_ModbusM_Config.obj (.cinit)
                  0033a3a9    00000004     RTU_ParaDefine.obj (.cinit:_HoldRegBuf)
                  0033a3ad    00000004     RTU_ParaDefine.obj (.cinit:_InputRegBuf)
                  0033a3b1    00000004     VariableDef.obj (.cinit:_InterADValue)
                  0033a3b5    00000004     Comm_VariableDef.obj (.cinit:_Modbus_RecvBuffer)
                  0033a3b9    00000004     Comm_VariableDef.obj (.cinit:_Modbus_SendBuffer)
                  0033a3bd    00000004     VariableDef.obj (.cinit:_NTC_tempf)
                  0033a3c1    00000004     Main.obj (.cinit:_iCycBuf)
                  0033a3c5    00000004     Main.obj (.cinit:_iIsrBuf)
                  0033a3c9    00000004     softscope_V1.03_20160712.obj (.cinit)
                  0033a3cd    00000002     --HOLE-- [fill = 0]

.econst    0    0033a3d0    00000be4     
                  0033a3d0    0000012c     section_cabinet.obj (.econst:.string)
                  0033a4fc    00000100     MessageParse_V1.06_20160712.obj (.econst:_CrcTab)
                  0033a5fc    00000100     DSP2833x_PieVect.obj (.econst:_PieVectTableInit)
                  0033a6fc    000000c4     RTU_ParaDefine.obj (.econst:_sHoldReg_Group)
                  0033a7c0    00000098     ParaDefine.obj (.econst:_sParaData_Group14)
                  0033a858    00000084     RTU_ParaDefine.obj (.econst:_sInputReg_Group)
                  0033a8dc    00000080     ParaDefine.obj (.econst:_sParaData_Group16)
                  0033a95c    00000070     ParaDefine.obj (.econst:_sParaData_Group13)
                  0033a9cc    0000006c     MCS2MPR_Table_V1.0.obj (.econst:_MCS2MPR_CANSDOSummary)
                  0033aa38    00000068     ParaDefine.obj (.econst:_sParaData_Summary)
                  0033aaa0    00000040     ParaDefine.obj (.econst:_sParaData_Group6)
                  0033aae0    0000003c     ECANA_CH1_NPR_Table_V1.0.obj (.econst:_MPR2NPR_RPDOObj)
                  0033ab1c    0000003c     ECANA_CH1_NPR_Table_V1.0.obj (.econst:_MPR2NPR_TPDOObj)
                  0033ab58    00000030     MCS2MPR_Table_V1.0.obj (.econst:_MCS2MPR_RPDOObj)
                  0033ab88    00000030     MCS2MPR_Table_V1.0.obj (.econst:_MCS2MPR_TPDOObj)
                  0033abb8    00000030     Arithmetic.obj (.econst:_decomp)
                  0033abe8    00000030     ParaDefine.obj (.econst:_sParaData_Group8)
                  0033ac18    0000002c     ParaDefine.obj (.econst:_sParaData_Group10)
                  0033ac44    0000002c     ParaDefine.obj (.econst:_sParaData_Group4)
                  0033ac70    00000024     ParaDefine.obj (.econst:_sParaData_Group15)
                  0033ac94    00000024     ParaDefine.obj (.econst:_sParaData_Group25)
                  0033acb8    00000024     ParaDefine.obj (.econst:_sParaData_Group5)
                  0033acdc    00000020     ParaDefine.obj (.econst:_sParaData_Group1)
                  0033acfc    00000020     ParaDefine.obj (.econst:_sParaData_Group9)
                  0033ad1c    0000001c     DSP28335_Adc_V11.obj (.econst:_$P$T0$1)
                  0033ad38    0000001c     DSP28335_Adc_V11.obj (.econst:_$P$T1$2)
                  0033ad54    0000001c     DSP28335_Adc_V11.obj (.econst:_$P$T2$3)
                  0033ad70    0000001c     ParaDefine.obj (.econst:_sParaData_Group11)
                  0033ad8c    0000001a     DSP28335_Adc_V11.obj (.econst:_$P$T3$4)
                  0033ada6    0000001a     DSP28335_Adc_V11.obj (.econst:_$P$T4$5)
                  0033adc0    0000001a     DSP28335_Adc_V11.obj (.econst:_$P$T5$6)
                  0033adda    00000018     ParaDefine.obj (.econst:_sParaData_Group23)
                  0033adf2    00000014     ParaDefine.obj (.econst:_sParaData_Group2)
                  0033ae06    00000012     ECANA_CH1_NPR_Table_V1.0.obj (.econst:_MPR2NPR_SDOObject_0x4012)
                  0033ae18    00000012     ECANA_CH1_NPR_Table_V1.0.obj (.econst:_MPR2NPR_SDOObject_0x4013)
                  0033ae2a    00000010     ParaDefine.obj (.econst:_sParaData_Group3)
                  0033ae3a    00000010     ParaDefine.obj (.econst:_sParaData_Group7)
                  0033ae4a    0000000c     MCS2MPR_Table_V1.0.obj (.econst:_MCS2MPR_SDOObject_0x1000)
                  0033ae56    0000000c     MCS2MPR_Table_V1.0.obj (.econst:_MCS2MPR_SDOObject_0x1005)
                  0033ae62    0000000c     MCS2MPR_Table_V1.0.obj (.econst:_MCS2MPR_SDOObject_0x1006)
                  0033ae6e    0000000c     MCS2MPR_Table_V1.0.obj (.econst:_MCS2MPR_SDOObject_0x100C)
                  0033ae7a    0000000c     MCS2MPR_Table_V1.0.obj (.econst:_MCS2MPR_SDOObject_0x100D)
                  0033ae86    0000000c     MCS2MPR_Table_V1.0.obj (.econst:_MCS2MPR_SDOObject_0x1018)
                  0033ae92    0000000c     MCS2MPR_Table_V1.0.obj (.econst:_MCS2MPR_SDOObject_0x2000)
                  0033ae9e    0000000c     MCS2MPR_Table_V1.0.obj (.econst:_MCS2MPR_SDOObject_0x2001)
                  0033aeaa    0000000c     MCS2MPR_Table_V1.0.obj (.econst:_MCS2MPR_SDOObject_0x2002)
                  0033aeb6    0000000c     MCS2MPR_Table_V1.0.obj (.econst:_MCS2MPR_SDOObject_0x2003)
                  0033aec2    0000000c     MCS2MPR_Table_V1.0.obj (.econst:_MCS2MPR_SDOObject_0x2010)
                  0033aece    0000000c     MCS2MPR_Table_V1.0.obj (.econst:_MCS2MPR_SDOObject_0x2011)
                  0033aeda    0000000c     MCS2MPR_Table_V1.0.obj (.econst:_MCS2MPR_SDOObject_0x2012)
                  0033aee6    0000000c     MCS2MPR_Table_V1.0.obj (.econst:_MCS2MPR_SDOObject_0x2013)
                  0033aef2    0000000c     MCS2MPR_Table_V1.0.obj (.econst:_MCS2MPR_SDOObject_0x2014)
                  0033aefe    0000000c     MCS2MPR_Table_V1.0.obj (.econst:_MCS2MPR_SDOObject_0x2015)
                  0033af0a    0000000c     MCS2MPR_Table_V1.0.obj (.econst:_MCS2MPR_SDOObject_0x2016)
                  0033af16    0000000c     MCS2MPR_Table_V1.0.obj (.econst:_MCS2MPR_SDOObject_0x2017)
                  0033af22    0000000c     MCS2MPR_Table_V1.0.obj (.econst:_MCS2MPR_SDOObject_0x2018)
                  0033af2e    0000000c     MCS2MPR_Table_V1.0.obj (.econst:_MCS2MPR_SDOObject_0x2019)
                  0033af3a    0000000c     MCS2MPR_Table_V1.0.obj (.econst:_MCS2MPR_SDOObject_0x201A)
                  0033af46    0000000c     MCS2MPR_Table_V1.0.obj (.econst:_MCS2MPR_SDOObject_0x201B)
                  0033af52    0000000c     MCS2MPR_Table_V1.0.obj (.econst:_MCS2MPR_SDOObject_0x201C)
                  0033af5e    0000000c     MCS2MPR_Table_V1.0.obj (.econst:_MCS2MPR_SDOObject_0x201D)
                  0033af6a    0000000c     MCS2MPR_Table_V1.0.obj (.econst:_MCS2MPR_SDOObject_0x201E)
                  0033af76    0000000c     MCS2MPR_Table_V1.0.obj (.econst:_MCS2MPR_SDOObject_0x201F)
                  0033af82    0000000c     ECANA_CH1_NPR_Table_V1.0.obj (.econst:_MPR2NPR_CANSDOSummary)
                  0033af8e    00000006     hal_can.obj (.econst:_$P$T0$1)
                  0033af94    00000004     ParaDefine.obj (.econst:_sParaData_Group12)
                  0033af98    00000004     ParaDefine.obj (.econst:_sParaData_Group17)
                  0033af9c    00000004     ParaDefine.obj (.econst:_sParaData_Group18)
                  0033afa0    00000004     ParaDefine.obj (.econst:_sParaData_Group19)
                  0033afa4    00000004     ParaDefine.obj (.econst:_sParaData_Group20)
                  0033afa8    00000004     ParaDefine.obj (.econst:_sParaData_Group21)
                  0033afac    00000004     ParaDefine.obj (.econst:_sParaData_Group22)
                  0033afb0    00000004     ParaDefine.obj (.econst:_sParaData_Group24)

DevEmuRegsFile 
*          1    00000880    000000d0     UNINITIALIZED
                  00000880    000000d0     DSP2833x_GlobalVariableDefs.obj (DevEmuRegsFile)

FlashRegsFile 
*          1    00000a80    00000008     UNINITIALIZED
                  00000a80    00000008     DSP2833x_GlobalVariableDefs.obj (FlashRegsFile)

CsmRegsFile 
*          1    00000ae0    00000010     UNINITIALIZED
                  00000ae0    00000010     DSP2833x_GlobalVariableDefs.obj (CsmRegsFile)

AdcMirrorFile 
*          1    00000b00    00000010     UNINITIALIZED
                  00000b00    00000010     DSP2833x_GlobalVariableDefs.obj (AdcMirrorFile)

XintfRegsFile 
*          1    00000b20    0000001e     UNINITIALIZED
                  00000b20    0000001e     DSP2833x_GlobalVariableDefs.obj (XintfRegsFile)

CpuTimer0RegsFile 
*          1    00000c00    00000008     UNINITIALIZED
                  00000c00    00000008     DSP2833x_GlobalVariableDefs.obj (CpuTimer0RegsFile)

CpuTimer1RegsFile 
*          1    00000c08    00000008     UNINITIALIZED
                  00000c08    00000008     DSP2833x_GlobalVariableDefs.obj (CpuTimer1RegsFile)

CpuTimer2RegsFile 
*          1    00000c10    00000008     UNINITIALIZED
                  00000c10    00000008     DSP2833x_GlobalVariableDefs.obj (CpuTimer2RegsFile)

PieCtrlRegsFile 
*          1    00000ce0    0000001a     UNINITIALIZED
                  00000ce0    0000001a     DSP2833x_GlobalVariableDefs.obj (PieCtrlRegsFile)

PieVectTableFile 
*          1    00000d00    00000100     UNINITIALIZED
                  00000d00    00000100     DSP2833x_GlobalVariableDefs.obj (PieVectTableFile)

DmaRegsFile 
*          1    00001000    000000e0     UNINITIALIZED
                  00001000    000000e0     DSP2833x_GlobalVariableDefs.obj (DmaRegsFile)

McbspaRegsFile 
*          1    00005000    00000025     UNINITIALIZED
                  00005000    00000025     DSP2833x_GlobalVariableDefs.obj (McbspaRegsFile)

McbspbRegsFile 
*          1    00005040    00000025     UNINITIALIZED
                  00005040    00000025     DSP2833x_GlobalVariableDefs.obj (McbspbRegsFile)

ECanaRegsFile 
*          1    00006000    00000034     UNINITIALIZED
                  00006000    00000034     DSP2833x_GlobalVariableDefs.obj (ECanaRegsFile)

ECanaLAMRegsFile 
*          1    00006040    00000040     UNINITIALIZED
                  00006040    00000040     DSP2833x_GlobalVariableDefs.obj (ECanaLAMRegsFile)

ECanaMOTSRegsFile 
*          1    00006080    00000040     UNINITIALIZED
                  00006080    00000040     DSP2833x_GlobalVariableDefs.obj (ECanaMOTSRegsFile)

ECanaMOTORegsFile 
*          1    000060c0    00000040     UNINITIALIZED
                  000060c0    00000040     DSP2833x_GlobalVariableDefs.obj (ECanaMOTORegsFile)

ECanaMboxesFile 
*          1    00006100    00000100     UNINITIALIZED
                  00006100    00000100     DSP2833x_GlobalVariableDefs.obj (ECanaMboxesFile)

ECanbRegsFile 
*          1    00006200    00000034     UNINITIALIZED
                  00006200    00000034     DSP2833x_GlobalVariableDefs.obj (ECanbRegsFile)

ECanbLAMRegsFile 
*          1    00006240    00000040     UNINITIALIZED
                  00006240    00000040     DSP2833x_GlobalVariableDefs.obj (ECanbLAMRegsFile)

ECanbMOTSRegsFile 
*          1    00006280    00000040     UNINITIALIZED
                  00006280    00000040     DSP2833x_GlobalVariableDefs.obj (ECanbMOTSRegsFile)

ECanbMOTORegsFile 
*          1    000062c0    00000040     UNINITIALIZED
                  000062c0    00000040     DSP2833x_GlobalVariableDefs.obj (ECanbMOTORegsFile)

ECanbMboxesFile 
*          1    00006300    00000100     UNINITIALIZED
                  00006300    00000100     DSP2833x_GlobalVariableDefs.obj (ECanbMboxesFile)

EPwm1RegsFile 
*          1    00006800    00000022     UNINITIALIZED
                  00006800    00000022     DSP2833x_GlobalVariableDefs.obj (EPwm1RegsFile)

EPwm2RegsFile 
*          1    00006840    00000022     UNINITIALIZED
                  00006840    00000022     DSP2833x_GlobalVariableDefs.obj (EPwm2RegsFile)

EPwm3RegsFile 
*          1    00006880    00000022     UNINITIALIZED
                  00006880    00000022     DSP2833x_GlobalVariableDefs.obj (EPwm3RegsFile)

EPwm4RegsFile 
*          1    000068c0    00000022     UNINITIALIZED
                  000068c0    00000022     DSP2833x_GlobalVariableDefs.obj (EPwm4RegsFile)

EPwm5RegsFile 
*          1    00006900    00000022     UNINITIALIZED
                  00006900    00000022     DSP2833x_GlobalVariableDefs.obj (EPwm5RegsFile)

EPwm6RegsFile 
*          1    00006940    00000022     UNINITIALIZED
                  00006940    00000022     DSP2833x_GlobalVariableDefs.obj (EPwm6RegsFile)

ECap1RegsFile 
*          1    00006a00    00000020     UNINITIALIZED
                  00006a00    00000020     DSP2833x_GlobalVariableDefs.obj (ECap1RegsFile)

ECap2RegsFile 
*          1    00006a20    00000020     UNINITIALIZED
                  00006a20    00000020     DSP2833x_GlobalVariableDefs.obj (ECap2RegsFile)

ECap3RegsFile 
*          1    00006a40    00000020     UNINITIALIZED
                  00006a40    00000020     DSP2833x_GlobalVariableDefs.obj (ECap3RegsFile)

ECap4RegsFile 
*          1    00006a60    00000020     UNINITIALIZED
                  00006a60    00000020     DSP2833x_GlobalVariableDefs.obj (ECap4RegsFile)

ECap5RegsFile 
*          1    00006a80    00000020     UNINITIALIZED
                  00006a80    00000020     DSP2833x_GlobalVariableDefs.obj (ECap5RegsFile)

ECap6RegsFile 
*          1    00006aa0    00000020     UNINITIALIZED
                  00006aa0    00000020     DSP2833x_GlobalVariableDefs.obj (ECap6RegsFile)

EQep1RegsFile 
*          1    00006b00    00000040     UNINITIALIZED
                  00006b00    00000040     DSP2833x_GlobalVariableDefs.obj (EQep1RegsFile)

EQep2RegsFile 
*          1    00006b40    00000040     UNINITIALIZED
                  00006b40    00000040     DSP2833x_GlobalVariableDefs.obj (EQep2RegsFile)

GpioCtrlRegsFile 
*          1    00006f80    0000002e     UNINITIALIZED
                  00006f80    0000002e     DSP2833x_GlobalVariableDefs.obj (GpioCtrlRegsFile)

GpioDataRegsFile 
*          1    00006fc0    00000020     UNINITIALIZED
                  00006fc0    00000020     DSP2833x_GlobalVariableDefs.obj (GpioDataRegsFile)

GpioIntRegsFile 
*          1    00006fe0    0000000a     UNINITIALIZED
                  00006fe0    0000000a     DSP2833x_GlobalVariableDefs.obj (GpioIntRegsFile)

SysCtrlRegsFile 
*          1    00007010    00000020     UNINITIALIZED
                  00007010    00000020     DSP2833x_GlobalVariableDefs.obj (SysCtrlRegsFile)

SpiaRegsFile 
*          1    00007040    00000010     UNINITIALIZED
                  00007040    00000010     DSP2833x_GlobalVariableDefs.obj (SpiaRegsFile)

SciaRegsFile 
*          1    00007050    00000010     UNINITIALIZED
                  00007050    00000010     DSP2833x_GlobalVariableDefs.obj (SciaRegsFile)

XIntruptRegsFile 
*          1    00007070    00000010     UNINITIALIZED
                  00007070    00000010     DSP2833x_GlobalVariableDefs.obj (XIntruptRegsFile)

AdcRegsFile 
*          1    00007100    0000001e     UNINITIALIZED
                  00007100    0000001e     DSP2833x_GlobalVariableDefs.obj (AdcRegsFile)

ScibRegsFile 
*          1    00007750    00000010     UNINITIALIZED
                  00007750    00000010     DSP2833x_GlobalVariableDefs.obj (ScibRegsFile)

ScicRegsFile 
*          1    00007770    00000010     UNINITIALIZED
                  00007770    00000010     DSP2833x_GlobalVariableDefs.obj (ScicRegsFile)

I2caRegsFile 
*          1    00007900    00000022     UNINITIALIZED
                  00007900    00000022     DSP2833x_GlobalVariableDefs.obj (I2caRegsFile)

CsmPwlFile 
*          1    0033fff8    00000008     UNINITIALIZED
                  0033fff8    00000008     DSP2833x_GlobalVariableDefs.obj (CsmPwlFile)

PartIdRegsFile 
*          1    00380090    00000001     UNINITIALIZED
                  00380090    00000001     DSP2833x_GlobalVariableDefs.obj (PartIdRegsFile)

.pinit     0    00330000    00000000     UNINITIALIZED

.text      0    00330000    00009382     
                  00330000    000016ae     Main.obj (.text)
                  003316ae    00000bba     DataLog_V1.11_20160712.obj (.text)
                  00332268    000008ff     Pub_ECAN_CHx_Protocol_V1.0.obj (.text)
                  00332b67    000007a2     MCS2MPR_Protocol_V1.0.obj (.text)
                  00333309    00000640     DSP28335_Spi_EEPROM_Protocol_V1.0.obj (.text)
                  00333949    000005cb     Arithmetic.obj (.text)
                  00333f14    000004e0     CtrlSource.obj (.text)
                  003343f4    000004ce     EventLog_V1.11_20160712.obj (.text)
                  003348c2    00000486     DSP28335_Xintf_V1.0.obj (.text)
                  00334d48    0000047d     Main.obj (.text:retain)
                  003351c5    0000044d     Modbus_Data_Process.obj (.text)
                  00335612    00000416     Flash_Comm_V1.10.obj (.text)
                  00335a28    00000415     DSP28335_ECanA_Protocol_V1.0.obj (.text)
                  00335e3d    000003b1     ModbusM_Protocol.obj (.text)
                  003361ee    0000031c     DSP28335_Adc_V11.obj (.text)
                  0033650a    00000316     DSP2833x_DefaultIsr.obj (.text:retain)
                  00336820    000002ec     CanDrive.obj (.text)
                  00336b0c    000002e2     MessageParse_V1.06_20160712.obj (.text)
                  00336dee    000002c5     softscope_V1.03_20160712.obj (.text)
                  003370b3    0000029e     VariableDef.obj (.text)
                  00337351    0000029d     ParaDeal_V1.06_20160712.obj (.text)
                  003375ee    0000028a     EEPROM_APP_V1.04_20150513.obj (.text)
                  00337878    0000022d     DSP28335EPWM.obj (.text)
                  00337aa5    000001d8     DSP28335_ECanB_Protocol_V1.0.obj (.text)
                  00337c7d    0000019f     ModbusRTU_Protocol.obj (.text)
                  00337e1c    0000019f     can_fifo.obj (.text)
                  00337fbb    0000019a     hal_can.obj (.text)
                  00338155    00000181     SciBConfig_IO.obj (.text)
                  003382d6    00000167     DSP28335_ECanB_Reg_V1.0.obj (.text)
                  0033843d    00000135     Flash_CMD_SET_V2.00.obj (.text)
                  00338572    00000128     ModbusRTU_APP.obj (.text)
                  0033869a    00000115     DSP28335_ECanA_Reg_V1.0.obj (.text)
                  003387af    00000115     DSP2833x_Gpio.obj (.text)
                  003388c4    000000fb     Sci_ModbusM_Config.obj (.text)
                  003389bf    000000f2     DSP2833x_SysCtrl.obj (.text)
                  00338ab1    000000dc     event.obj (.text:retain)
                  00338b8d    000000c1     Sci_Modbus_Config.obj (.text)
                  00338c4e    000000bc     Version_Protocol.obj (.text)
                  00338d0a    000000af     ECANB_Data_Process.obj (.text)
                  00338db9    0000008d     DSP2833x_DMA_Reg_V1.00_MCBSPA.obj (.text)
                  00338e46    00000088     rts2800_fpu32.lib : fs_div28.asm.obj (.text)
                  00338ece    00000079     hal_timer.obj (.text)
                  00338f47    00000078     Flash_CMD_Macro_V2.00.obj (.text)
                  00338fbf    00000066     rts2800_fpu32.lib : s_sinf.c.obj (.text)
                  00339025    00000063                       : s_cosf.c.obj (.text)
                  00339088    00000056                       : boot28.asm.obj (.text)
                  003390de    00000051     DSP28335_CpuTimers.obj (.text)
                  0033912f    0000004d     DSP28335_Spi_Reg_V1.0.obj (.text)
                  0033917c    0000004c     TimerDrive.obj (.text)
                  003391c8    00000046     DSP2833x_MCBSPB_Reg.obj (.text)
                  0033920e    0000003e     Zone7Data.obj (.text)
                  0033924c    0000002a     rts2800_fpu32.lib : l_div28.asm.obj (.text)
                  00339276    00000029                       : exit.c.obj (.text)
                  0033929f    00000026     DSP2833x_PieCtrl.obj (.text)
                  003392c5    00000024     rts2800_fpu32.lib : cpy_tbl.c.obj (.text)
                  003392e9    00000022                       : i_div28.asm.obj (.text)
                  0033930b    00000020     DSP2833x_PieVect.obj (.text)
                  0033932b    0000001d     rts2800_fpu32.lib : memcpy.c.obj (.text)
                  00339348    00000012                       : args_main.c.obj (.text)
                  0033935a    0000000b                       : u_div28.asm.obj (.text)
                  00339365    00000009                       : _lock.c.obj (.text)
                  0033936e    00000008     DSP2833x_CodeStartBranch.obj (.text)
                  00339376    00000007     rts2800_fpu32.lib : memset.c.obj (.text)
                  0033937d    00000002     ECANA_Data_Process.obj (.text)
                  0033937f    00000002     rts2800_fpu32.lib : pre_init.c.obj (.text)
                  00339381    00000001                       : startup.c.obj (.text)

codestart 
*          0    0033fff6    00000002     
                  0033fff6    00000002     DSP2833x_CodeStartBranch.obj (codestart)

.stack     1    00000400    00000300     UNINITIALIZED
                  00000400    00000300     --HOLE--

.ebss      1    00009000    00001bd8     UNINITIALIZED
                  00009000    00000400     Comm_VariableDef.obj (.ebss:_SCIBSendBuffer)
                  00009400    000003ca     VariableDef.obj (.ebss)
                  000097ca    00000034     Version_Table.obj (.ebss:_Conv_List_Ver)
                  000097fe    00000002     CurrHarmCtrl.obj (.ebss)
                  00009800    00000200     Comm_VariableDef.obj (.ebss:_SCIBRecvBuffer)
                  00009a00    000001e0     can_fifo.obj (.ebss:_GsCANx_BufferTx)
                  00009be0    00000020     Comm_VariableDef.obj (.ebss:_DataLog_SaveAnalogCHID)
                  00009c00    00000129     Sci_ModbusM_Config.obj (.ebss)
                  00009d29    00000010     Comm_VariableDef.obj (.ebss:_CANARPDO)
                  00009d39    00000007     Flash_Comm_V1.10.obj (.ebss)
                  00009d40    000000bc     hal_can.obj (.ebss)
                  00009dfc    00000004     ECANB_Data_Process.obj (.ebss)
                  00009e00    000000a0     Comm_VariableDef.obj (.ebss)
                  00009ea0    00000020     Comm_VariableDef.obj (.ebss:_DataLog_SaveDigitCHBit)
                  00009ec0    000000a0     hal_can.obj (.ebss:_canRxBuf)
                  00009f60    00000020     Comm_VariableDef.obj (.ebss:_DataLog_SaveDigitCHID)
                  00009f80    00000082     Comm_VariableDef.obj (.ebss:_DataLog_ChannelSend)
                  0000a002    00000034     Version_Table.obj (.ebss:_Conv_Type_Ver)
                  0000a036    0000000a     DSP28335_ECanB_Protocol_V1.0.obj (.ebss)
                  0000a040    00000082     Comm_VariableDef.obj (.ebss:_DataLog_Trig)
                  0000a0c2    00000034     Version_Table.obj (.ebss:_RTM_File_Ver)
                  0000a0f6    0000000a     Version_Table.obj (.ebss:_FPGA_Ver)
                  0000a100    00000080     Comm_VariableDef.obj (.ebss:_EventLog_ReadBuf)
                  0000a180    00000080     Comm_VariableDef.obj (.ebss:_EventLog_SaveBuf)
                  0000a200    00000080     Comm_VariableDef.obj (.ebss:_Modbus_RecvBuffer)
                  0000a280    00000080     Comm_VariableDef.obj (.ebss:_Modbus_SendBuffer)
                  0000a300    00000080     Comm_VariableDef.obj (.ebss:_SPIBuffer)
                  0000a380    00000080     Main.obj (.ebss:_fCycBuf)
                  0000a400    00000080     Main.obj (.ebss:_fIsrBuf)
                  0000a480    00000080     Main.obj (.ebss:_iCycBuf)
                  0000a500    00000080     Main.obj (.ebss:_iIsrBuf)
                  0000a580    00000080     Main.obj (.ebss:_lCycBuf)
                  0000a600    00000080     Main.obj (.ebss:_lIsrBuf)
                  0000a680    0000007c     ModbusM_Protocol.obj (.ebss)
                  0000a6fc    00000004     EventLog_V1.11_20160712.obj (.ebss)
                  0000a700    00000060     Comm_VariableDef.obj (.ebss:_CANAMB0SendBuffer)
                  0000a760    00000020     RTU_ParaDefine.obj (.ebss:_InputRegBuf)
                  0000a780    00000040     Comm_VariableDef.obj (.ebss:_DataLog_AnalogAddr)
                  0000a7c0    00000040     Comm_VariableDef.obj (.ebss:_DataLog_DigitAddr)
                  0000a800    00000034     Version_Table.obj (.ebss:_Soft_Ver)
                  0000a834    0000000c     DataLog_V1.11_20160712.obj (.ebss)
                  0000a840    00000032     RTU_ParaDefine.obj (.ebss:_HoldRegBuf)
                  0000a872    0000000a     hal_timer.obj (.ebss)
                  0000a87c    00000004     MCS2MPR_Protocol_V1.0.obj (.ebss)
                  0000a880    00000032     Comm_VariableDef.obj (.ebss:_SoftScope_buffer)
                  0000a8b2    00000009     Comm_VariableDef.obj (.ebss:_Flash_PSNSerial)
                  0000a8bb    00000005     MCS2MPR_Table_V1.0.obj (.ebss)
                  0000a8c0    00000030     Comm_VariableDef.obj (.ebss:_CANBMB0PDOSendBuffer)
                  0000a8f0    00000010     Comm_VariableDef.obj (.ebss:_CANATPDO)
                  0000a900    00000030     Comm_VariableDef.obj (.ebss:_CANBMB0SDOSendBuffer)
                  0000a930    00000010     Comm_VariableDef.obj (.ebss:_CANBRPDO)
                  0000a940    00000030     Comm_VariableDef.obj (.ebss:_CANBMB4RecvBuffer)
                  0000a970    00000010     Comm_VariableDef.obj (.ebss:_CANBTPDO)
                  0000a980    00000030     Comm_VariableDef.obj (.ebss:_CANBMB5RecvBuffer)
                  0000a9b0    00000010     VariableDef.obj (.ebss:_InterADValue)
                  0000a9c0    00000028     can_agent.obj (.ebss)
                  0000a9e8    00000018     DSP28335_CpuTimers.obj (.ebss)
                  0000aa00    00000023     ParaDefine.obj (.ebss:_GroupCtrl)
                  0000aa23    00000001     EEPROM_APP_V1.04_20150513.obj (.ebss)
                  0000aa24    0000001c     can_app.obj (.ebss)
                  0000aa40    00000020     VariableDef.obj (.ebss:_ResSample)
                  0000aa60    00000020     VariableDef.obj (.ebss:_TemprCalc)
                  0000aa80    00000020     VariableDef.obj (.ebss:_VolSample)
                  0000aaa0    00000018     Comm_VariableDef.obj (.ebss:_CANAMB4RecvBuffer)
                  0000aab8    00000008     Comm_VariableDef.obj (.ebss:_DataLog_TrigAnalogAddr)
                  0000aac0    00000018     Comm_VariableDef.obj (.ebss:_CANAMB5RecvBuffer)
                  0000aad8    00000018     Comm_VariableDef.obj (.ebss:_CANAMB6RecvBuffer)
                  0000aaf0    00000010     ParaDefine.obj (.ebss:_Monitor_ADDR)
                  0000ab00    00000018     Comm_VariableDef.obj (.ebss:_CANAMB7RecvBuffer)
                  0000ab18    00000018     Comm_VariableDef.obj (.ebss:_CANAMB8RecvBuffer)
                  0000ab30    00000010     VariableDef.obj (.ebss:_NTC_tempf)
                  0000ab40    00000010     Comm_VariableDef.obj (.ebss:_SoftScope_AnalogChaddr)
                  0000ab50    00000010     Comm_VariableDef.obj (.ebss:_SoftScope_DigitChaddr)
                  0000ab60    00000008     Comm_VariableDef.obj (.ebss:_DataLog_TrigDigitAddr)
                  0000ab68    00000008     Comm_VariableDef.obj (.ebss:_SoftScope_AnalogChID)
                  0000ab70    00000008     Comm_VariableDef.obj (.ebss:_SoftScope_DigitChBit)
                  0000ab78    00000008     Comm_VariableDef.obj (.ebss:_SoftScope_DigitChID)
                  0000ab80    00000008     can_adapter.obj (.ebss)
                  0000ab88    00000006     ECANA_CH1_NPR_Table_V1.0.obj (.ebss)
                  0000ab8e    00000006     SciBConfig_IO.obj (.ebss)
                  0000ab94    00000006     rts2800_fpu32.lib : exit.c.obj (.ebss)
                  0000ab9a    00000004     ParaDefine.obj (.ebss)
                  0000ab9e    00000004     Comm_VariableDef.obj (.ebss:_DataLog_TrigAnalogCHID)
                  0000aba2    00000004     Comm_VariableDef.obj (.ebss:_DataLog_TrigAnalogCHThr)
                  0000aba6    00000004     Comm_VariableDef.obj (.ebss:_DataLog_TrigAnalogValueOld)
                  0000abaa    00000004     Comm_VariableDef.obj (.ebss:_DataLog_TrigDigitCHBit)
                  0000abae    00000004     Comm_VariableDef.obj (.ebss:_DataLog_TrigDigitCHID)
                  0000abb2    00000004     RTU_ParaDefine.obj (.ebss:_RTUGroup)
                  0000abb6    00000004     hal_can.obj (.ebss:_SpCAN_CallbackTx)
                  0000abba    00000004     can_fifo.obj (.ebss:_SsCAN_TxBuffer)
                  0000abbe    00000002     can_fifo.obj (.ebss:_SbTxPortAvailable)
                  0000abc0    00000003     DSP28335_ECanA_Protocol_V1.0.obj (.ebss)
                  0000abc3    00000003     Comm_VariableDef.obj (.ebss:_Flash_MID)
                  0000abc6    00000002     can_fifo.obj (.ebss:_Su8CAN_TxHead)
                  0000abc8    00000002     can_fifo.obj (.ebss:_Su8CAN_TxLength)
                  0000abca    00000002     can_fifo.obj (.ebss:_Su8CAN_TxMaxSize)
                  0000abcc    00000002     can_fifo.obj (.ebss:_Su8CAN_TxSize)
                  0000abce    00000002     can_fifo.obj (.ebss:_Su8CAN_TxTail)
                  0000abd0    00000002     rts2800_fpu32.lib : _lock.c.obj (.ebss:__lock)
                  0000abd2    00000002                       : _lock.c.obj (.ebss:__unlock)
                  0000abd4    00000002     section_cabinet.obj (.ebss)
                  0000abd6    00000001     RTU_ParaDefine.obj (.ebss)
                  0000abd7    00000001     softscope_V1.03_20160712.obj (.ebss)

IQmath     0    00328000    00000047     
                  00328000    00000047     IQmath_fpu32.lib : IQ1div.obj (IQmath)

IQmathTables 
*          0    003fe000    00000b50     NOLOAD SECTION
                  003fe000    00000b50     IQmath_fpu32.lib : IQmathTables.obj (IQmathTables)

DMARAML7   1    0000f000    00000142     UNINITIALIZED
                  0000f000    00000142     DSP2833x_DMA_Reg_V1.00_MCBSPA.obj (DMARAML7)

ZONE7DATA 
*          1    00200000    00057e60     UNINITIALIZED
                  00200000    00057e60     Zone7Data.obj (ZONE7DATA)

.reset     0    003fffc0    00000002     DSECT
                  003fffc0    00000002     rts2800_fpu32.lib : boot28.asm.obj (.reset)

vectors    0    003fffc2    00000000     DSECT

.adc_cal   0    00380080    00000007     NOLOAD SECTION
                  00380080    00000007     DSP2833x_ADC_cal.obj (.adc_cal)

MODULE SUMMARY

       Module                                  code    initialized data   uninitialized data
       ------                                  ----    ----------------   ------------------
    .\App\Can\
       can_app.obj                             0       5                  28                
    +--+---------------------------------------+-------+------------------+--------------------+
       Total:                                  0       5                  28                
                                                                                            
    .\Arithmetic\
       Arithmetic.obj                          1483    48                 0                 
       CtrlSource.obj                          1248    0                  0                 
       CurrHarmCtrl.obj                        0       8                  2                 
    +--+---------------------------------------+-------+------------------+--------------------+
       Total:                                  2731    56                 2                 
                                                                                            
    .\ECANA\
       DSP28335_ECanA_Protocol_V1.0.obj        1045    12                 3                 
       DSP28335_ECanA_Reg_V1.0.obj             277     0                  0                 
       ECANA_CH1_NPR_Table_V1.0.obj            0       192                6                 
       ECANA_Data_Process.obj                  2       0                  0                 
    +--+---------------------------------------+-------+------------------+--------------------+
       Total:                                  1324    204                9                 
                                                                                            
    .\ECANB\
       MCS2MPR_Protocol_V1.0.obj               1954    16                 4                 
       DSP28335_ECanB_Protocol_V1.0.obj        1158    8                  10                
       MCS2MPR_Table_V1.0.obj                  0       532                5                 
       DSP28335_ECanB_Reg_V1.0.obj             359     0                  0                 
       ECANB_Data_Process.obj                  175     16                 4                 
    +--+---------------------------------------+-------+------------------+--------------------+
       Total:                                  3646    572                23                
                                                                                            
    .\MCBSP_FLASH\
       DSP2833x_MCBSPB_Reg.obj                 70      0                  0                 
    +--+---------------------------------------+-------+------------------+--------------------+
       Total:                                  70      0                  0                 
                                                                                            
    .\Main\
       Main.obj                                6955    28                 768               
       Comm_VariableDef.obj                    0       1226               3446              
       VariableDef.obj                         670     2456               1098              
    +--+---------------------------------------+-------+------------------+--------------------+
       Total:                                  7625    3710               5312              
                                                                                            
    .\Reg_Source\
       Zone7Data.obj                           62      0                  360032            
       DSP28335_Xintf_V1.0.obj                 1158    0                  0                 
       DSP28335_Adc_V11.obj                    796     162                0                 
       DSP28335EPWM.obj                        567     0                  0                 
       DSP2833x_DMA_Reg_V1.00_MCBSPA.obj       141     0                  322               
       DSP2833x_Gpio.obj                       277     0                  0                 
    +--+---------------------------------------+-------+------------------+--------------------+
       Total:                                  3001    162                360354            
                                                                                            
    .\SCI_ModbusM\
       ModbusM_Protocol.obj                    945     17                 124               
       Sci_ModbusM_Config.obj                  251     4                  297               
    +--+---------------------------------------+-------+------------------+--------------------+
       Total:                                  1196    21                 421               
                                                                                            
    .\SCI_ModbusS\
       Modbus_Data_Process.obj                 1101    0                  0                 
       RTU_ParaDefine.obj                      0       347                87                
       ModbusRTU_Protocol.obj                  415     0                  0                 
       ModbusRTU_APP.obj                       296     0                  0                 
       Sci_Modbus_Config.obj                   193     0                  0                 
    +--+---------------------------------------+-------+------------------+--------------------+
       Total:                                  2005    347                87                
                                                                                            
    .\SCI_Monitor\
       ParaDefine.obj                          0       1065               55                
       SciBConfig_IO.obj                       385     24                 6                 
       Version_Table.obj                       0       54                 218               
       Version_Protocol.obj                    188     0                  0                 
    +--+---------------------------------------+-------+------------------+--------------------+
       Total:                                  573     1143               279               
                                                                                            
    .\SDK\Agent\Can\
       can_agent.obj                           0       32                 40                
    +--+---------------------------------------+-------+------------------+--------------------+
       Total:                                  0       32                 40                
                                                                                            
    .\SDK\Drivers\
       CanDrive.obj                            748     0                  0                 
       TimerDrive.obj                          76      0                  0                 
    +--+---------------------------------------+-------+------------------+--------------------+
       Total:                                  824     0                  0                 
                                                                                            
    .\SDK\Hal\Can\
       can_fifo.obj                            415     0                  496               
       hal_can.obj                             410     31                 352               
    +--+---------------------------------------+-------+------------------+--------------------+
       Total:                                  825     31                 848               
                                                                                            
    .\SDK\Hal\Event\
       event.obj                               220     0                  0                 
    +--+---------------------------------------+-------+------------------+--------------------+
       Total:                                  220     0                  0                 
                                                                                            
    .\SDK\Hal\Timer\
       hal_timer.obj                           121     27                 10                
    +--+---------------------------------------+-------+------------------+--------------------+
       Total:                                  121     27                 10                
                                                                                            
    .\SPI_EEPROM\
       DSP28335_Spi_Reg_V1.0.obj               77      0                  0                 
    +--+---------------------------------------+-------+------------------+--------------------+
       Total:                                  77      0                  0                 
                                                                                            
    .\Services\Adapter\
       can_adapter.obj                         0       0                  8                 
    +--+---------------------------------------+-------+------------------+--------------------+
       Total:                                  0       0                  8                 
                                                                                            
    .\Services\Logic\
       section_cabinet.obj                     0       305                2                 
    +--+---------------------------------------+-------+------------------+--------------------+
       Total:                                  0       305                2                 
                                                                                            
    .\System\
       DSP2833x_GlobalVariableDefs.obj         0       0                  2679              
       DSP2833x_DefaultIsr.obj                 790     0                  0                 
       DSP2833x_SysCtrl.obj                    296     0                  0                 
       DSP2833x_PieVect.obj                    32      256                0                 
       DSP28335_CpuTimers.obj                  81      0                  24                
       DSP2833x_PieCtrl.obj                    38      0                  0                 
       DSP2833x_CodeStartBranch.obj            10      0                  0                 
       DSP2833x_ADC_cal.obj                    7       0                  0                 
    +--+---------------------------------------+-------+------------------+--------------------+
       Total:                                  1254    256                2703              
                                                                                            
    D:\workspaces\MPR_500kW\DSP28335_Project\source\ECANA\
       Pub_ECAN_CHx_Protocol_V1.0.obj          2303    0                  0                 
    +--+---------------------------------------+-------+------------------+--------------------+
       Total:                                  2303    0                  0                 
                                                                                            
    D:\workspaces\MPR_500kW\DSP28335_Project\source\MCBSP_Flash\
       Flash_Comm_V1.10.obj                    1046    8                  7                 
       Flash_CMD_SET_V2.00.obj                 309     0                  0                 
       Flash_CMD_Macro_V2.00.obj               120     0                  0                 
    +--+---------------------------------------+-------+------------------+--------------------+
       Total:                                  1475    8                  7                 
                                                                                            
    D:\workspaces\MPR_500kW\DSP28335_Project\source\SCI_monitor\
       DataLog_V1.11_20160712.obj              3002    35                 12                
       EventLog_V1.11_20160712.obj             1230    13                 4                 
       MessageParse_V1.06_20160712.obj         738     256                0                 
       softscope_V1.03_20160712.obj            709     4                  1                 
       ParaDeal_V1.06_20160712.obj             669     0                  0                 
    +--+---------------------------------------+-------+------------------+--------------------+
       Total:                                  6348    308                17                
                                                                                            
    D:\workspaces\MPR_500kW\DSP28335_Project\source\SPI_EEPROM\
       DSP28335_Spi_EEPROM_Protocol_V1.0.obj   1600    0                  0                 
       EEPROM_APP_V1.04_20150513.obj           650     4                  1                 
    +--+---------------------------------------+-------+------------------+--------------------+
       Total:                                  2250    4                  1                 
                                                                                            
    D:/workspaces/MPR_500kW/DSP2833x_common/lib/IQmath_fpu32.lib
       IQmathTables.obj                        0       2896               0                 
       IQ1div.obj                              71      0                  0                 
    +--+---------------------------------------+-------+------------------+--------------------+
       Total:                                  71      2896               0                 
                                                                                            
    D:\ccs\ccsv6\tools\compiler\ti-cgt-c2000_22.6.2.LTS\lib\rts2800_fpu32.lib
       fs_div28.asm.obj                        136     0                  0                 
       s_sinf.c.obj                            102     0                  0                 
       s_cosf.c.obj                            99      0                  0                 
       boot28.asm.obj                          86      0                  0                 
       exit.c.obj                              41      14                 6                 
       l_div28.asm.obj                         42      0                  0                 
       cpy_tbl.c.obj                           36      0                  0                 
       i_div28.asm.obj                         34      0                  0                 
       memcpy.c.obj                            29      0                  0                 
       _lock.c.obj                             9       10                 4                 
       args_main.c.obj                         18      0                  0                 
       u_div28.asm.obj                         11      0                  0                 
       memset.c.obj                            7       0                  0                 
       pre_init.c.obj                          2       0                  0                 
       startup.c.obj                           1       0                  0                 
    +--+---------------------------------------+-------+------------------+--------------------+
       Total:                                  653     24                 10                
                                                                                            
       Stack:                                  0       0                  768               
    +--+---------------------------------------+-------+------------------+--------------------+
       Grand Total:                            38592   10111              370929            


GLOBAL DATA SYMBOLS: SORTED BY DATA PAGE

address     data page           name
--------    ----------------    ----
00000400      10 (00000400)     __stack

00000880      22 (00000880)     _DevEmuRegs

00000a80      2a (00000a80)     _FlashRegs

00000ae0      2b (00000ac0)     _CsmRegs

00000b00      2c (00000b00)     _AdcMirror
00000b20      2c (00000b00)     _XintfRegs

00000c00      30 (00000c00)     _CpuTimer0Regs
00000c08      30 (00000c00)     _CpuTimer1Regs
00000c10      30 (00000c00)     _CpuTimer2Regs

00000ce0      33 (00000cc0)     _PieCtrlRegs

00000d00      34 (00000d00)     _PieVectTable

00001000      40 (00001000)     _DmaRegs

00005000     140 (00005000)     _McbspaRegs

00005040     141 (00005040)     _McbspbRegs

00006000     180 (00006000)     _ECanaRegs

00006040     181 (00006040)     _ECanaLAMRegs

00006080     182 (00006080)     _ECanaMOTSRegs

000060c0     183 (000060c0)     _ECanaMOTORegs

00006100     184 (00006100)     _ECanaMboxes

00006200     188 (00006200)     _ECanbRegs

00006240     189 (00006240)     _ECanbLAMRegs

00006280     18a (00006280)     _ECanbMOTSRegs

000062c0     18b (000062c0)     _ECanbMOTORegs

00006300     18c (00006300)     _ECanbMboxes

00006800     1a0 (00006800)     _EPwm1Regs

00006840     1a1 (00006840)     _EPwm2Regs

00006880     1a2 (00006880)     _EPwm3Regs

000068c0     1a3 (000068c0)     _EPwm4Regs

00006900     1a4 (00006900)     _EPwm5Regs

00006940     1a5 (00006940)     _EPwm6Regs

00006a00     1a8 (00006a00)     _ECap1Regs
00006a20     1a8 (00006a00)     _ECap2Regs

00006a40     1a9 (00006a40)     _ECap3Regs
00006a60     1a9 (00006a40)     _ECap4Regs

00006a80     1aa (00006a80)     _ECap5Regs
00006aa0     1aa (00006a80)     _ECap6Regs

00006b00     1ac (00006b00)     _EQep1Regs

00006b40     1ad (00006b40)     _EQep2Regs

00006f80     1be (00006f80)     _GpioCtrlRegs

00006fc0     1bf (00006fc0)     _GpioDataRegs
00006fe0     1bf (00006fc0)     _GpioIntRegs

00007010     1c0 (00007000)     _SysCtrlRegs

00007040     1c1 (00007040)     _SpiaRegs
00007050     1c1 (00007040)     _SciaRegs
00007070     1c1 (00007040)     _XIntruptRegs

00007100     1c4 (00007100)     _AdcRegs

00007750     1dd (00007740)     _ScibRegs
00007770     1dd (00007740)     _ScicRegs

00007900     1e4 (00007900)     _I2caRegs

00009000     240 (00009000)     _SCIBSendBuffer

00009400     250 (00009400)     _FpgaVerCode
00009401     250 (00009400)     _DeviceNum
00009402     250 (00009400)     _ParaSaveFlag
00009403     250 (00009400)     _ParaSaveFlagOld
00009404     250 (00009400)     _FanIgbt_HMI
00009405     250 (00009400)     _MasToSlaWord
00009406     250 (00009400)     _Mas1ToSlaWord
00009407     250 (00009400)     _Mas2ToSlaWord
00009408     250 (00009400)     _SlaToMasWord
00009409     250 (00009400)     _SlaToMas1Word
0000940a     250 (00009400)     _SlaToMas2Word
0000940b     250 (00009400)     _FpgaSofaFault
0000940c     250 (00009400)     _FltCnt_OverTemp_Transformer
0000940d     250 (00009400)     _FltCnt_OverTemp_Inverter
0000940e     250 (00009400)     _FltCnt_OverTemp_Rectifier
0000940f     250 (00009400)     _Zqwl_Temp_Error
00009410     250 (00009400)     _Can_Temp_Flag
00009411     250 (00009400)     _Test_Time1ms
00009412     250 (00009400)     _IOInputFpga1
00009413     250 (00009400)     _IOInputFpga2
00009414     250 (00009400)     _IOInputFpga3
00009415     250 (00009400)     _IOInput1
00009416     250 (00009400)     _IOInput2
00009417     250 (00009400)     _IOInputEn
00009418     250 (00009400)     _IOInputLogic
00009419     250 (00009400)     _IOInputDisValue
0000941a     250 (00009400)     _IOOutFpga1
0000941b     250 (00009400)     _IOOutFpga1Old
0000941c     250 (00009400)     _IOOutput1
0000941d     250 (00009400)     _IOOutput1Old
0000941e     250 (00009400)     _IOOutCtrl1Word
0000941f     250 (00009400)     _FPGACD4067_SelFlag
00009420     250 (00009400)     _PWMTestA
00009421     250 (00009400)     _PWMTestB
00009422     250 (00009400)     _PWMTestC
00009423     250 (00009400)     _AlarmWord1
00009424     250 (00009400)     _AlarmWord2
00009425     250 (00009400)     _AlarmWord3
00009426     250 (00009400)     _AlarmWord4
00009427     250 (00009400)     _AlarmWord5
00009428     250 (00009400)     _AlarmWord6
00009429     250 (00009400)     _AlarmWord7
0000942a     250 (00009400)     _AlarmWord8
0000942b     250 (00009400)     _AlmCnt_OpearatError
0000942c     250 (00009400)     _MPR_FaultCode
0000942d     250 (00009400)     _MPR_AlarmCode
0000942e     250 (00009400)     _ECANA_FaultCode
0000942f     250 (00009400)     _ECANA_FaultMask
00009430     250 (00009400)     _NPR_ConvHWAMWord
00009431     250 (00009400)     _FltCnt_OverTime_Unload
00009432     250 (00009400)     _FltCnt_OverTime_PreChar
00009433     250 (00009400)     _FltCnt_OverDvalue_Tempr
00009434     250 (00009400)     _FltCnt_OverTemp_IGBT
00009435     250 (00009400)     _FltCnt_OverTime_MasShift
00009436     250 (00009400)     _FltCnt_OverVolt_Work1
00009437     250 (00009400)     _FltCnt_UnderVolt_Work1
00009438     250 (00009400)     _FltCnt_OverVolt_Work2
00009439     250 (00009400)     _FltCnt_UnderVolt_Work2
0000943a     250 (00009400)     _FltCnt_UnderVolt_Udc
0000943b     250 (00009400)     _FltCnt_OverVolt_Udc
0000943c     250 (00009400)     _FltCnt_OverTime_ACB
0000943d     250 (00009400)     _FltCnt_OverTime_FCC
0000943e     250 (00009400)     _FltCnt_OverTime_FanIgbt
0000943f     250 (00009400)     _FltCnt_OverTime_FanCap

00009440     251 (00009440)     _FltCnt_OverCurr_Ipeak
00009441     251 (00009440)     _FltCnt_OverCurr_Irms
00009442     251 (00009440)     _FltCnt_OverCurr_CapIrms
00009443     251 (00009440)     _FltCnt_OverDvalue_Freq
00009444     251 (00009440)     _FltCnt_UnderFreq_Grid
00009445     251 (00009440)     _FltCnt_OverCurr_Isum
00009446     251 (00009440)     _FltCnt_VolgImba_Grid
00009447     251 (00009440)     _FltCnt_OverTime_LockPWM
00009448     251 (00009440)     _FltCnt_ToggHigh_CAN
00009449     251 (00009440)     _FltCnt_ToggLow_CAN
0000944a     251 (00009440)     _FltCnt_OverTime_Cap40uF
0000944b     251 (00009440)     _FltCnt_OverTime_Cap20uF
0000944c     251 (00009440)     _FltCnt_OverTime_NprRun
0000944d     251 (00009440)     _FltCnt_OverImba_Volt
0000944e     251 (00009440)     _FltCnt_OverImba_Curr
0000944f     251 (00009440)     _FltCnt_OverTime_ACB1Out
00009450     251 (00009440)     _FltCnt_OverTime_ACB2Out
00009451     251 (00009440)     _FltCnt_OverTime_ACB3Out
00009452     251 (00009440)     _FltCnt_OverLow_FlowRate
00009453     251 (00009440)     _FltThr_OverTimt_UnloadIn
00009454     251 (00009440)     _MPR_HWFMWord0
00009455     251 (00009440)     _MPR_HWFMWord1
00009456     251 (00009440)     _MPR_HWFMWord2
00009457     251 (00009440)     _MPR_HWFMWord3
00009458     251 (00009440)     _MPR_HWFMWord4
00009459     251 (00009440)     _MPR_HWFMWord5
0000945a     251 (00009440)     _MPR_HWFMWord6
0000945b     251 (00009440)     _MPR_HWFMWord7
0000945c     251 (00009440)     _FaultWord1
0000945d     251 (00009440)     _FaultWord2
0000945e     251 (00009440)     _FaultWord3
0000945f     251 (00009440)     _FaultWord4
00009460     251 (00009440)     _FaultWord5
00009461     251 (00009440)     _FaultWord6
00009462     251 (00009440)     _FaultWord7
00009463     251 (00009440)     _FaultWord8
00009464     251 (00009440)     _Curr_Har1_En
00009465     251 (00009440)     _Curr_Har1_Order
00009466     251 (00009440)     _Curr_Har2_En
00009467     251 (00009440)     _Curr_Har2_Order
00009468     251 (00009440)     _DspToFpgaWord
00009469     251 (00009440)     _FpgaToDspWord
0000946a     251 (00009440)     _Start_WaitTime
0000946b     251 (00009440)     _Start_WaitTimeSet
0000946c     251 (00009440)     _Flag_DspRdFpga
0000946d     251 (00009440)     _Flag_DspWrFpga
0000946e     251 (00009440)     _PowerCtrlWord
0000946f     251 (00009440)     _PowerStatusWord
00009470     251 (00009440)     _MainCtrlWord
00009471     251 (00009440)     _MainCtrlWord_CAN
00009472     251 (00009440)     _MainCtrlWord_PC
00009473     251 (00009440)     _MainCtrlWord_HMI
00009474     251 (00009440)     _MainStusWord
00009475     251 (00009440)     _MainStusWordOld
00009476     251 (00009440)     _CtrlModeWord
00009477     251 (00009440)     _BreakCtrlWord
00009478     251 (00009440)     _BreakStatusWord
00009479     251 (00009440)     _UnloadCtrl_PC
0000947a     251 (00009440)     _FPGACtrlWord
0000947b     251 (00009440)     _Manu_Oper_Force
0000947c     251 (00009440)     _Id_Priority
0000947d     251 (00009440)     _IdqStep_CountMax
0000947e     251 (00009440)     _IdqStep_Count
0000947f     251 (00009440)     _UdqStep_Count

00009480     252 (00009480)     _UdqStep_CountMax
00009481     252 (00009480)     _FastChar_PhaseSel
00009482     252 (00009480)     _FastChar_RiseTime
00009483     252 (00009480)     _FastChar_HoleTime
00009484     252 (00009480)     _FastChar_DownTime
00009485     252 (00009480)     _FastChar_RunStatus
00009486     252 (00009480)     _FastChar_CtrlWord
00009487     252 (00009480)     _FastChar_StopWord
00009488     252 (00009480)     _FastChar_TimeCount
00009489     252 (00009480)     _FastChar_1msCount
0000948a     252 (00009480)     _Udc_SetCount
0000948b     252 (00009480)     _UdcStep_CountMax
0000948c     252 (00009480)     _SysCnt_1msBase
0000948d     252 (00009480)     _SysCnt_1ms
0000948e     252 (00009480)     _SysCnt_1msOld
0000948f     252 (00009480)     _SysCnt_1sBase
00009490     252 (00009480)     _SysCnt_1s
00009491     252 (00009480)     _SysCnt_1sOld
00009492     252 (00009480)     _SysCnt_10msRmsCalc
00009493     252 (00009480)     _CtrlThr_LockPwm_Time
00009494     252 (00009480)     _Status_MPRRun
00009495     252 (00009480)     _CtrlCnt_StartCheck
00009496     252 (00009480)     _CtrlCnt_IgbtFanOn
00009497     252 (00009480)     _CtrlCnt_LedTogg
00009498     252 (00009480)     _CtrlCnt_RstDelay
00009499     252 (00009480)     _CtrlCnt_ManUnload
0000949a     252 (00009480)     _CtrlCnt_IORunRefFeed
0000949b     252 (00009480)     _CtrlCnt_IORstRefFeed
0000949c     252 (00009480)     _CtrlCnt_IOFltDelay
0000949d     252 (00009480)     _CtrlCnt_ReactorFanOn
0000949e     252 (00009480)     _CtrlCnt_SofaStart
0000949f     252 (00009480)     _CtrlCnt_StartNpr
000094a0     252 (00009480)     _CtrlCnt_FltDlyUV1
000094a1     252 (00009480)     _CtrlCnt_FltDlyUV2
000094a2     252 (00009480)     _CtrlCnt_AddBusOk
000094a3     252 (00009480)     _Flag_LockPWM
000094a4     252 (00009480)     _Flag_IORunRef
000094a5     252 (00009480)     _Flag_IORstRef
000094a6     252 (00009480)     _Flag_IORstRefOld
000094a7     252 (00009480)     _Flag_FanCapOn
000094a8     252 (00009480)     _Flag_FanIgbtOn
000094a9     252 (00009480)     _Flag_EEPROMCheck
000094aa     252 (00009480)     _Flag_RstCmdOld
000094ab     252 (00009480)     _Flag_PwmModuMode
000094ac     252 (00009480)     _Flag_PowerOn
000094ad     252 (00009480)     _Flag_WorkMode
000094ae     252 (00009480)     _Flag_WorkModeOld
000094af     252 (00009480)     _CAN_SectorRst_Flag
000094b0     252 (00009480)     _CAN_SectorRst_FlagOld
000094b1     252 (00009480)     _Flag_VoltRef
000094b2     252 (00009480)     _FlagOld_VoltRef
000094b3     252 (00009480)     _Flag_FreqRef
000094b4     252 (00009480)     _FlagOld_FreqRef
000094b5     252 (00009480)     _Flag_PowerOnRef
000094b6     252 (00009480)     _Operation_ineffective
000094b7     252 (00009480)     _Rst_Flag_HMI
000094b8     252 (00009480)     _Rst_Flag_HMIOld
000094ba     252 (00009480)     _FpgaIdRef
000094bc     252 (00009480)     _FpgaIqRef
000094be     252 (00009480)     _MotorVolt_Imbalance

000094c0     253 (000094c0)     _MotorCurr_Imbalance
000094c2     253 (000094c0)     _FlowRate
000094c4     253 (000094c0)     _UdcOffset_Outer
000094c6     253 (000094c0)     _FltThr_OverTemp_Transformer
000094c8     253 (000094c0)     _FltThr_OverTemp_Inverter
000094ca     253 (000094c0)     _FltThr_OverTemp_Rectifier
000094cc     253 (000094c0)     _Rectifier_reactor_temp
000094ce     253 (000094c0)     _Inverter_reactor_temp
000094d0     253 (000094c0)     _Transformer_temp
000094d2     253 (000094c0)     _CtrlThr_ReactorOn_TempH
000094d4     253 (000094c0)     _CtrlThr_ReactorOff_TempH
000094d6     253 (000094c0)     _SOGI_FreqMea
000094d8     253 (000094c0)     _SOGI_FreqMeaf
000094da     253 (000094c0)     _SOGI_Freqff
000094dc     253 (000094c0)     _SOGI_wFreqErr
000094de     253 (000094c0)     _UgalDire
000094e0     253 (000094c0)     _UgalQuar
000094e2     253 (000094c0)     _UgbeDire
000094e4     253 (000094c0)     _UgbeQuar
000094e6     253 (000094c0)     _UgalErr
000094e8     253 (000094c0)     _UgbeErr
000094ea     253 (000094c0)     _mpr_udc
000094ec     253 (000094c0)     _mpr_udcf
000094ee     253 (000094c0)     _mpr_ua
000094f0     253 (000094c0)     _mpr_ub
000094f2     253 (000094c0)     _mpr_uc
000094f4     253 (000094c0)     _mpr_uab
000094f6     253 (000094c0)     _mpr_ubc
000094f8     253 (000094c0)     _mpr_uca
000094fa     253 (000094c0)     _mpr_uabf
000094fc     253 (000094c0)     _mpr_ubcf
000094fe     253 (000094c0)     _mpr_ucaf

00009500     254 (00009500)     _mpr_ual
00009502     254 (00009500)     _mpr_ube
00009504     254 (00009500)     _UGal_D90
00009506     254 (00009500)     _UGbe_D90
00009508     254 (00009500)     _mpr_ual_p
0000950a     254 (00009500)     _mpr_ube_p
0000950c     254 (00009500)     _mpr_ual_n
0000950e     254 (00009500)     _mpr_ube_n
00009510     254 (00009500)     _mpr_ud
00009512     254 (00009500)     _mpr_uq
00009514     254 (00009500)     _mpr_udf
00009516     254 (00009500)     _mpr_uqf
00009518     254 (00009500)     _mpr_udp
0000951a     254 (00009500)     _mpr_uqp
0000951c     254 (00009500)     _mpr_udn
0000951e     254 (00009500)     _mpr_uqn
00009520     254 (00009500)     _mpr_udpf
00009522     254 (00009500)     _mpr_uqpf
00009524     254 (00009500)     _mpr_udnf
00009526     254 (00009500)     _mpr_uqnf
00009528     254 (00009500)     _mpr_ia
0000952a     254 (00009500)     _mpr_ib
0000952c     254 (00009500)     _mpr_ic
0000952e     254 (00009500)     _mpr_isum
00009530     254 (00009500)     _mpr_ipeak
00009532     254 (00009500)     _mpr_ial
00009534     254 (00009500)     _mpr_ibe
00009536     254 (00009500)     _Igal_D90
00009538     254 (00009500)     _Igbe_D90
0000953a     254 (00009500)     _Igal_N
0000953c     254 (00009500)     _Igbe_N
0000953e     254 (00009500)     _mpr_id

00009540     255 (00009540)     _mpr_iq
00009542     255 (00009540)     _mpr_iod
00009544     255 (00009540)     _mpr_ioq
00009546     255 (00009540)     _mpr_iodf
00009548     255 (00009540)     _mpr_ioqf
0000954a     255 (00009540)     _mpr_idn
0000954c     255 (00009540)     _mpr_iqn
0000954e     255 (00009540)     _mpr_idf
00009550     255 (00009540)     _mpr_iqf
00009552     255 (00009540)     _mpr_idnf
00009554     255 (00009540)     _mpr_iqnf
00009556     255 (00009540)     _npr_ifa
00009558     255 (00009540)     _npr_ifb
0000955a     255 (00009540)     _npr_ifc
0000955c     255 (00009540)     _npr_ifal
0000955e     255 (00009540)     _npr_ifbe
00009560     255 (00009540)     _npr_ifd
00009562     255 (00009540)     _npr_ifq
00009564     255 (00009540)     _mpr_freq
00009566     255 (00009540)     _mpr_freqf
00009568     255 (00009540)     _GridVolt_Angle
0000956a     255 (00009540)     _GridCurrent_Angle
0000956c     255 (00009540)     _GridUconvert_Angle
0000956e     255 (00009540)     _MotorVolt_Angle
00009570     255 (00009540)     _MotorVolt_Freq
00009572     255 (00009540)     _MotorVolt_AngleComp
00009574     255 (00009540)     _UsCtrl_Al
00009576     255 (00009540)     _UsCtrl_Be
00009578     255 (00009540)     _UsCtrl_Aln
0000957a     255 (00009540)     _UsCtrl_Ben
0000957c     255 (00009540)     _UsCtrl_AlG
0000957e     255 (00009540)     _UsCtrl_BeG

00009580     256 (00009580)     _UsCtrl_AlGn
00009582     256 (00009580)     _UsCtrl_BeGn
00009584     256 (00009580)     _UsCtrl_AlAll
00009586     256 (00009580)     _UsCtrl_BeAll
00009588     256 (00009580)     _UsCtrl_d
0000958a     256 (00009580)     _UsCtrl_q
0000958c     256 (00009580)     _UsCtrl_dn
0000958e     256 (00009580)     _UsCtrl_qn
00009590     256 (00009580)     _Ua_Rms
00009592     256 (00009580)     _Ub_Rms
00009594     256 (00009580)     _Uc_Rms
00009596     256 (00009580)     _Ua_Rmsf
00009598     256 (00009580)     _Ub_Rmsf
0000959a     256 (00009580)     _Uc_Rmsf
0000959c     256 (00009580)     _Uab_Rms
0000959e     256 (00009580)     _Ubc_Rms
000095a0     256 (00009580)     _Uca_Rms
000095a2     256 (00009580)     _Uab_Rmsf
000095a4     256 (00009580)     _Ubc_Rmsf
000095a6     256 (00009580)     _Uca_Rmsf
000095a8     256 (00009580)     _vLine_max
000095aa     256 (00009580)     _vLine_min
000095ac     256 (00009580)     _vLine_avg
000095ae     256 (00009580)     _UalbeP_Rms
000095b0     256 (00009580)     _UalbeN_Rms
000095b2     256 (00009580)     _UalbeP_Rmsf
000095b4     256 (00009580)     _UalbeN_Rmsf
000095b6     256 (00009580)     _Ia_Rms
000095b8     256 (00009580)     _Ib_Rms
000095ba     256 (00009580)     _Ic_Rms
000095bc     256 (00009580)     _Ia_Rmsf
000095be     256 (00009580)     _Ib_Rmsf

000095c0     257 (000095c0)     _Ic_Rmsf
000095c2     257 (000095c0)     _Iphase_min
000095c4     257 (000095c0)     _Iphase_max
000095c6     257 (000095c0)     _Iphase_avg
000095c8     257 (000095c0)     _Iaf_Rms
000095ca     257 (000095c0)     _Ibf_Rms
000095cc     257 (000095c0)     _Icf_Rms
000095ce     257 (000095c0)     _Iaf_Rmsf
000095d0     257 (000095c0)     _Ibf_Rmsf
000095d2     257 (000095c0)     _Icf_Rmsf
000095d4     257 (000095c0)     _Ifphase_min
000095d6     257 (000095c0)     _Ifphase_max
000095d8     257 (000095c0)     _NPR_Power
000095da     257 (000095c0)     _NPR_ReactPower
000095dc     257 (000095c0)     _Power_Factor
000095de     257 (000095c0)     _GridVolt_Imbalance
000095e0     257 (000095c0)     _MPR_Ps
000095e2     257 (000095c0)     _MPR_Qs
000095e4     257 (000095c0)     _MPR_Ss
000095e6     257 (000095c0)     _MPR_PsACK
000095e8     257 (000095c0)     _MPR_QsACK
000095ea     257 (000095c0)     _MPR_SsACK
000095ec     257 (000095c0)     _Volt_Imbalance
000095ee     257 (000095c0)     _Curr_Imbalance
000095f0     257 (000095c0)     _Ioa_Rms
000095f2     257 (000095c0)     _Iob_Rms
000095f4     257 (000095c0)     _Ioc_Rms
000095f6     257 (000095c0)     _UabBus1_Rms
000095f8     257 (000095c0)     _UbcBus1_Rms
000095fa     257 (000095c0)     _UcaBus1_Rms
000095fc     257 (000095c0)     _UabBus2_Rms
000095fe     257 (000095c0)     _UbcBus2_Rms

00009600     258 (00009600)     _UcaBus2_Rms
00009602     258 (00009600)     _Ioa_Rmsf
00009604     258 (00009600)     _Iob_Rmsf
00009606     258 (00009600)     _Ioc_Rmsf
00009608     258 (00009600)     _UabBus1_Rmsf
0000960a     258 (00009600)     _UbcBus1_Rmsf
0000960c     258 (00009600)     _UcaBus1_Rmsf
0000960e     258 (00009600)     _UabBus2_Rmsf
00009610     258 (00009600)     _UbcBus2_Rmsf
00009612     258 (00009600)     _UcaBus2_Rmsf
00009614     258 (00009600)     _Idq_Loop_Kp
00009616     258 (00009600)     _Idq_Loop_Ki
00009618     258 (00009600)     _Id_Loop_Lim
0000961a     258 (00009600)     _Iq_Loop_Lim
0000961c     258 (00009600)     _Idq_Loop_Lim
0000961e     258 (00009600)     _Id_Loop_Kp
00009620     258 (00009600)     _Id_Loop_Ki
00009622     258 (00009600)     _Id_Loop_Kd
00009624     258 (00009600)     _Errtotal_Id
00009626     258 (00009600)     _Id_Loop_Out
00009628     258 (00009600)     _Iq_Loop_Kp
0000962a     258 (00009600)     _Iq_Loop_Ki
0000962c     258 (00009600)     _Iq_Loop_Kd
0000962e     258 (00009600)     _Errtotal_Iq
00009630     258 (00009600)     _Iq_Loop_Out
00009632     258 (00009600)     _Idn_Loop_Kp
00009634     258 (00009600)     _Idn_Loop_Ki
00009636     258 (00009600)     _Idn_Loop_Kd
00009638     258 (00009600)     _Errtotal_Idn
0000963a     258 (00009600)     _Idn_Loop_Out
0000963c     258 (00009600)     _Idn_Loop_Lim
0000963e     258 (00009600)     _Iqn_Loop_Kp

00009640     259 (00009640)     _Iqn_Loop_Ki
00009642     259 (00009640)     _Iqn_Loop_Kd
00009644     259 (00009640)     _Errtotal_Iqn
00009646     259 (00009640)     _Iqn_Loop_Lim
00009648     259 (00009640)     _Iqn_Loop_Out
0000964a     259 (00009640)     _Udc_Loop_Kp1
0000964c     259 (00009640)     _Udc_Loop_Ki1
0000964e     259 (00009640)     _Udc_Loop_Kd1
00009650     259 (00009640)     _Udc_Loop_Kp2
00009652     259 (00009640)     _Udc_Loop_Ki2
00009654     259 (00009640)     _Udc_Loop_Kd2
00009656     259 (00009640)     _Errtotal_Udc
00009658     259 (00009640)     _Udq_Loop_Kp
0000965a     259 (00009640)     _Udq_Loop_Ki
0000965c     259 (00009640)     _Udq_Loop_Lim
0000965e     259 (00009640)     _Ud_Loop_Kp
00009660     259 (00009640)     _Ud_Loop_Ki
00009662     259 (00009640)     _Errtotal_Ud
00009664     259 (00009640)     _Ud_Loop_Out
00009666     259 (00009640)     _Uq_Loop_Kp
00009668     259 (00009640)     _Uq_Loop_Ki
0000966a     259 (00009640)     _Errtotal_Uq
0000966c     259 (00009640)     _Uq_Loop_Out
0000966e     259 (00009640)     _Udn_Loop_Kp
00009670     259 (00009640)     _Udn_Loop_Ki
00009672     259 (00009640)     _Errtotal_Udn
00009674     259 (00009640)     _Udn_Loop_Out
00009676     259 (00009640)     _Uqn_Loop_Kp
00009678     259 (00009640)     _Uqn_Loop_Ki
0000967a     259 (00009640)     _Errtotal_Uqn
0000967c     259 (00009640)     _Uqn_Loop_Out
0000967e     259 (00009640)     _Udqn_Loop_Lim

00009680     25a (00009680)     _Ud_FeedFwd
00009682     25a (00009680)     _Uq_FeedFwd
00009684     25a (00009680)     _PLL_Kp
00009686     25a (00009680)     _PLL_Ki
00009688     25a (00009680)     _PLL_Kd
0000968a     25a (00009680)     _PLL_Lim
0000968c     25a (00009680)     _PLL_ErrTotal
0000968e     25a (00009680)     _npr_temphigh_reactor
00009690     25a (00009680)     _npr_templow_reactor
00009692     25a (00009680)     _mpr_temphigh
00009694     25a (00009680)     _mpr_templow
00009696     25a (00009680)     _Motor_Temphigh
00009698     25a (00009680)     _Motor_Templow
0000969a     25a (00009680)     _Filter_Cap_Temphigh
0000969c     25a (00009680)     _Filter_Cap_TempLow
0000969e     25a (00009680)     _AlmThr_OverVolt_Work1
000096a0     25a (00009680)     _AlmThr_UnderVolt_Work1
000096a2     25a (00009680)     _AlmThr_OverVolt_Work2
000096a4     25a (00009680)     _AlmThr_UnderVolt_Work2
000096a6     25a (00009680)     _AlmThr_OverDvalue_Freq
000096a8     25a (00009680)     _AlmThr_OverTemp_IGBT
000096aa     25a (00009680)     _AlmThr_OverVolt_Udc
000096ac     25a (00009680)     _AlmThr_UnderVolt_Udc
000096ae     25a (00009680)     _AlmThr_OverCurr_Irms
000096b0     25a (00009680)     _AlmThr_OverImba_Volt
000096b2     25a (00009680)     _AlmThr_OverImba_Curr
000096b4     25a (00009680)     _FltThr_OverVolt_Work
000096b6     25a (00009680)     _FltThr_UnderVolt_Work
000096b8     25a (00009680)     _FltThr_OverVolt_Work1
000096ba     25a (00009680)     _FltThr_UnderVolt_Work1
000096bc     25a (00009680)     _FltThr_OverVolt_Work2
000096be     25a (00009680)     _FltThr_UnderVolt_Work2

000096c0     25b (000096c0)     _FltThr_OverDvalue_Freq
000096c2     25b (000096c0)     _FltThr_UnderFreq_Grid
000096c4     25b (000096c0)     _FltThr_OverVolt_Udc
000096c6     25b (000096c0)     _FltThr_OverVoltEst_Udc
000096c8     25b (000096c0)     _FltThr_UnderVolt_Udc
000096ca     25b (000096c0)     _FltThr_OverTime_PreChar
000096cc     25b (000096c0)     _FltThr_OverCurr_Ipeak
000096ce     25b (000096c0)     _FltThr_OverCurrEst_Ipeak
000096d0     25b (000096c0)     _FltThr_OverCurr_Irms
000096d2     25b (000096c0)     _FltThr_OverCurr_Isum
000096d4     25b (000096c0)     _FltThr_OverCurr_CapIrms
000096d6     25b (000096c0)     _FltThr_OverTemp_IGBT
000096d8     25b (000096c0)     _FltThr_OverImba_Volt
000096da     25b (000096c0)     _FltThr_OverImba_Curr
000096dc     25b (000096c0)     _Curr_Har1_d
000096de     25b (000096c0)     _Curr_Har1_q
000096e0     25b (000096c0)     _Curr_Har1_df
000096e2     25b (000096c0)     _Curr_Har1_qf
000096e4     25b (000096c0)     _Curr_Har1_dErr
000096e6     25b (000096c0)     _Curr_Har1_qErr
000096e8     25b (000096c0)     _Curr_Har1_dErrtotal
000096ea     25b (000096c0)     _Curr_Har1_qErrtotal
000096ec     25b (000096c0)     _Curr_Har1_alOut
000096ee     25b (000096c0)     _Curr_Har1_beOut
000096f0     25b (000096c0)     _Curr_Har1_Loop_Kp
000096f2     25b (000096c0)     _Curr_Har1_Loop_Ki
000096f4     25b (000096c0)     _Curr_Har1_Loop_Lim
000096f6     25b (000096c0)     _Curr_Har1_dLoop_Out
000096f8     25b (000096c0)     _Curr_Har1_qLoop_Out
000096fa     25b (000096c0)     _Curr_Har2_d
000096fc     25b (000096c0)     _Curr_Har2_q
000096fe     25b (000096c0)     _Curr_Har2_df

00009700     25c (00009700)     _Curr_Har2_qf
00009702     25c (00009700)     _Curr_Har2_dErr
00009704     25c (00009700)     _Curr_Har2_qErr
00009706     25c (00009700)     _Curr_Har2_dErrtotal
00009708     25c (00009700)     _Curr_Har2_qErrtotal
0000970a     25c (00009700)     _Curr_Har2_alOut
0000970c     25c (00009700)     _Curr_Har2_beOut
0000970e     25c (00009700)     _Curr_Har2_Loop_Kp
00009710     25c (00009700)     _Curr_Har2_Loop_Ki
00009712     25c (00009700)     _Curr_Har2_Loop_Lim
00009714     25c (00009700)     _Curr_Har2_dLoop_Out
00009716     25c (00009700)     _Curr_Har2_qLoop_Out
00009718     25c (00009700)     _VoltFrontfeed_Coeff
0000971a     25c (00009700)     _CurrFrontfeed_Coeff
0000971c     25c (00009700)     _KVARRef_Sys
0000971e     25c (00009700)     _KWRefRef_Sys
00009720     25c (00009700)     _KVARRef_CAN
00009722     25c (00009700)     _KWRefRef_CAN
00009724     25c (00009700)     _KVARRef_PC
00009726     25c (00009700)     _KWRefRef_PC
00009728     25c (00009700)     _CurrRef_InductLoad
0000972a     25c (00009700)     _KwRef
0000972c     25c (00009700)     _KW_Lim
0000972e     25c (00009700)     _kW_cal_step
00009730     25c (00009700)     _KVar_Lim
00009732     25c (00009700)     _KVar_filter_Comp
00009734     25c (00009700)     _Ig_Lim
00009736     25c (00009700)     _IdRef_Outer
00009738     25c (00009700)     _IqRef_Outer
0000973a     25c (00009700)     _UdRefRef_Outer
0000973c     25c (00009700)     _UdRefRefOld_Outer
0000973e     25c (00009700)     _IgdRefRef

00009740     25d (00009740)     _IgdRef
00009742     25d (00009740)     _Igd_Lim
00009744     25d (00009740)     _Id_cal_step
00009746     25d (00009740)     _IgqRefRef
00009748     25d (00009740)     _IgqRef
0000974a     25d (00009740)     _Igq_Lim
0000974c     25d (00009740)     _Iq_cal_step
0000974e     25d (00009740)     _UsdRefRef_Buf
00009750     25d (00009740)     _MotorFreqRef_PC
00009752     25d (00009740)     _MotorFreqRef_CAN
00009754     25d (00009740)     _MotorFreqRef_HMI
00009756     25d (00009740)     _UsdRefRef_PC
00009758     25d (00009740)     _UsdRefRef_CAN
0000975a     25d (00009740)     _UsdRefRef_HMI
0000975c     25d (00009740)     _UsdRefRefOld_PC
0000975e     25d (00009740)     _UsdRefRefOld_CAN
00009760     25d (00009740)     _UsdRefRefOld_HMI
00009762     25d (00009740)     _MotorFreqRef
00009764     25d (00009740)     _MotorFreqRefOld
00009766     25d (00009740)     _FpgaMotorFreq
00009768     25d (00009740)     _Ud_cal_step
0000976a     25d (00009740)     _Usd_Lim
0000976c     25d (00009740)     _UdRef_All
0000976e     25d (00009740)     _UqRef_All
00009770     25d (00009740)     _UsdRefRef
00009772     25d (00009740)     _UsdRef
00009774     25d (00009740)     _UsqRefRef
00009776     25d (00009740)     _UsqRef
00009778     25d (00009740)     _FastChar_HighVolt
0000977a     25d (00009740)     _FastChar_AfterVolt
0000977c     25d (00009740)     _FastChar_ExitCurrSet
0000977e     25d (00009740)     _FastChar_Rate

00009780     25e (00009780)     _FastChar_RiseStep
00009782     25e (00009780)     _FastChar_DownStep
00009784     25e (00009780)     _FastChar_UdRefLock
00009786     25e (00009780)     _FastChar_UdRefRef
00009788     25e (00009780)     _FastChar_UdRef
0000978a     25e (00009780)     _FastChar_RiseGiven
0000978c     25e (00009780)     _FastChar_DownGiven
0000978e     25e (00009780)     _FastChar_UsdOld
00009790     25e (00009780)     _FastChar_UsqOld
00009792     25e (00009780)     _FastChar_DCOffset
00009794     25e (00009780)     _FastChar_CtrlCount
00009796     25e (00009780)     _FastChar_HoleCount
00009798     25e (00009780)     _FastChar_DownCount
0000979a     25e (00009780)     _FastChar_UdCompon
0000979c     25e (00009780)     _FastChar_UqCompon
0000979e     25e (00009780)     _Udc_SetSet
000097a0     25e (00009780)     _Udc_cal_step
000097a2     25e (00009780)     _RatedPara_GridVoltage
000097a4     25e (00009780)     _RatedPara_GridCurrent
000097a6     25e (00009780)     _RatedPara_GridFrequency
000097a8     25e (00009780)     _MotorSideCapacity
000097aa     25e (00009780)     _MotorSideVoltage
000097ac     25e (00009780)     _MotorSideCurrent
000097ae     25e (00009780)     _K_IfcForw
000097b0     25e (00009780)     _FilterPara_Induct
000097b2     25e (00009780)     _FilterPara_Capacity
000097b4     25e (00009780)     _NPR_AngleCompensation
000097b6     25e (00009780)     _Para_IoFwdCoeff
000097b8     25e (00009780)     _CtrlThr_ChopIn_UdcH
000097ba     25e (00009780)     _CtrlThr_ChopOut_UdcL
000097bc     25e (00009780)     _CtrlThr_FanIgbtOn_TempH
000097be     25e (00009780)     _CtrlThr_FanIgbtOff_TempL

000097c0     25f (000097c0)     _CtrlThr_LockPwm_Ipeak
000097c2     25f (000097c0)     _CtrlThr_UnLockPwm_Ipeak
000097c4     25f (000097c0)     _HeartbeatCheck1
000097c7     25f (000097c0)     _HeartbeatCheck2
000097ca     25f (000097c0)     _Conv_List_Ver
000097fe     25f (000097c0)     _Curr_Har1_EnDelayCount
000097ff     25f (000097c0)     _Curr_Har2_EnDelayCount

00009800     260 (00009800)     _SCIBRecvBuffer

00009be0     26f (00009bc0)     _DataLog_SaveAnalogCHID

00009c00     270 (00009c00)     _NodeEnergy

00009d29     274 (00009d00)     _CANARPDO
00009d39     274 (00009d00)     _MCBSP_Init_1msOld
00009d3a     274 (00009d00)     _MCBSP_InitCount
00009d3b     274 (00009d00)     _FlashBufShadow

00009d42     275 (00009d40)     _gHalCanBaudValue
00009d44     275 (00009d40)     _gHalCanErrorCount
00009d46     275 (00009d40)     _gHalCanBusoffCount

00009dfc     277 (00009dc0)     _SendFlag1
00009dfd     277 (00009dc0)     _SendFlag2
00009dfe     277 (00009dc0)     _SendFlag3
00009dff     277 (00009dc0)     _SendFlag4

00009e00     278 (00009e00)     _NODE_STATE
00009e01     278 (00009e00)     _PDO_SEND_FLAG
00009e02     278 (00009e00)     _NMTTimeInterval
00009e03     278 (00009e00)     _device_name
00009e04     278 (00009e00)     _data_1005
00009e05     278 (00009e00)     _data_1006
00009e06     278 (00009e00)     _data_100C
00009e07     278 (00009e00)     _data_100D
00009e08     278 (00009e00)     _Guard_time
00009e09     278 (00009e00)     _Life_factor
00009e0a     278 (00009e00)     _CANSend_1ms
00009e0b     278 (00009e00)     _CANSend_1msOld
00009e0c     278 (00009e00)     _ECAN_CommFlag
00009e0d     278 (00009e00)     _CANAMB0SendFront
00009e0e     278 (00009e00)     _CANAMB0SendTeal
00009e0f     278 (00009e00)     _ECANA_CH1_SDOIndex
00009e10     278 (00009e00)     _ECANA_CH1_SDOSubIndex
00009e11     278 (00009e00)     _CANAMB4RecvFront
00009e12     278 (00009e00)     _CANAMB4RecvTeal
00009e13     278 (00009e00)     _CANA_CH1_HCount
00009e14     278 (00009e00)     _CANA_CH1_LCount
00009e15     278 (00009e00)     _CANAMB5RecvFront
00009e16     278 (00009e00)     _CANAMB5RecvTeal
00009e17     278 (00009e00)     _CANA_CH2_HCount
00009e18     278 (00009e00)     _CANA_CH2_LCount
00009e19     278 (00009e00)     _CANAMB6RecvFront
00009e1a     278 (00009e00)     _CANAMB6RecvTeal
00009e1b     278 (00009e00)     _CANA_CH3_HCount
00009e1c     278 (00009e00)     _CANA_CH3_LCount
00009e1d     278 (00009e00)     _CANAMB7RecvFront
00009e1e     278 (00009e00)     _CANAMB7RecvTeal
00009e1f     278 (00009e00)     _CANA_CH4_HCount
00009e20     278 (00009e00)     _CANA_CH4_LCount
00009e21     278 (00009e00)     _CANAMB8RecvFront
00009e22     278 (00009e00)     _CANAMB8RecvTeal
00009e23     278 (00009e00)     _CANA_CH5_HCount
00009e24     278 (00009e00)     _CANA_CH5_LCount
00009e25     278 (00009e00)     _CANBMB0PDOSendFront
00009e26     278 (00009e00)     _CANBMB0PDOSendTeal
00009e27     278 (00009e00)     _CANBMB0SDOSendFront
00009e28     278 (00009e00)     _CANBMB0SDOSendTeal
00009e29     278 (00009e00)     _CANBMB4RecvFront
00009e2a     278 (00009e00)     _CANBMB4RecvTeal
00009e2b     278 (00009e00)     _CANBMB5RecvFront
00009e2c     278 (00009e00)     _CANBMB5RecvTeal
00009e2d     278 (00009e00)     _SCICRecvTail
00009e2e     278 (00009e00)     _SCICRecvFront
00009e2f     278 (00009e00)     _SCICSendTail
00009e30     278 (00009e00)     _SCICSendFront
00009e31     278 (00009e00)     _Modbus_1ms
00009e32     278 (00009e00)     _Mon_Recv_Status
00009e33     278 (00009e00)     _SCIBSendFront
00009e34     278 (00009e00)     _SCIBSendTail
00009e35     278 (00009e00)     _SCIBRecvFront
00009e36     278 (00009e00)     _SCIBRecvTail
00009e37     278 (00009e00)     _SCIBSend_1ms
00009e38     278 (00009e00)     _SoftScope_sts
00009e39     278 (00009e00)     _SoftScope_Counter
00009e3a     278 (00009e00)     _SoftScope_DataLen
00009e3b     278 (00009e00)     _SoftScope_OutQueueNum
00009e3c     278 (00009e00)     _SoftScope_SendDataNum
00009e3d     278 (00009e00)     _SoftScope_OnOffCmd
00009e3e     278 (00009e00)     _SoftScope_SampleInterval
00009e3f     278 (00009e00)     _SoftScope_AnalogCHNum

00009e40     279 (00009e40)     _SoftScope_DigitCHNum
00009e41     279 (00009e40)     _SoftScope_SampleFreq
00009e42     279 (00009e40)     _EventLog_ReadCmd
00009e43     279 (00009e40)     _EventLog_SaveFront
00009e44     279 (00009e40)     _EventLog_SaveEnd
00009e45     279 (00009e40)     _EventLog_Test
00009e46     279 (00009e40)     _EventLogStep
00009e47     279 (00009e40)     _EventLog_HardReset
00009e48     279 (00009e40)     _DataLog_CtrlCmd
00009e49     279 (00009e40)     _DataLog_TrigMode
00009e4a     279 (00009e40)     _DataLog_ManTrigCmd
00009e4b     279 (00009e40)     _DataLog_AnalagCHNum
00009e4c     279 (00009e40)     _DataLog_DigitCHNum
00009e4d     279 (00009e40)     _DataLog_SampPeriod
00009e4e     279 (00009e40)     _DataLog_Savepers
00009e4f     279 (00009e40)     _DataLog_TrigAnalogCHEnSet
00009e50     279 (00009e40)     _DataLog_TrigAnalogCHModeSet
00009e51     279 (00009e40)     _DataLog_TrigDigitCHEnSet
00009e52     279 (00009e40)     _DataLog_TrigDigitCHModeSet
00009e53     279 (00009e40)     _DataLog_ReadCmd
00009e54     279 (00009e40)     _DataLog_PermitMaxNum
00009e55     279 (00009e40)     _DataLog_TotalNum
00009e56     279 (00009e40)     _DataLog_NewestNum
00009e57     279 (00009e40)     _DataLog_NewestNumOld
00009e58     279 (00009e40)     _DataLog_IndexSendNum
00009e59     279 (00009e40)     _DataLog_DataSendNum
00009e5a     279 (00009e40)     _DataLog_NumCount
00009e5b     279 (00009e40)     _DataLog_TrigDigitValueOld
00009e5c     279 (00009e40)     _DataLog_SaveStepCount
00009e5d     279 (00009e40)     _DataLogStep
00009e5e     279 (00009e40)     _ParaDownloadCtrlWord
00009e5f     279 (00009e40)     _ParaDownloadFaultNum
00009e60     279 (00009e40)     _SRAM_RandomRead_Value
00009e61     279 (00009e40)     _SPI_EEPRPM_BusyStatus
00009e62     279 (00009e40)     _SPIaddrPage
00009e63     279 (00009e40)     _SPIaddrOffset
00009e64     279 (00009e40)     _EEPROMWriteCtrl
00009e65     279 (00009e40)     _EEPROMReadCtrl
00009e66     279 (00009e40)     _EEPROMAceNum
00009e67     279 (00009e40)     _RTCAccessStatus
00009e68     279 (00009e40)     _SysTime_Second
00009e69     279 (00009e40)     _SysTime_Minute
00009e6a     279 (00009e40)     _SysTime_Hour
00009e6b     279 (00009e40)     _SysTime_Day
00009e6c     279 (00009e40)     _SysTime_Month
00009e6d     279 (00009e40)     _SysTime_Year
00009e6e     279 (00009e40)     _SysTime_MicroSecond
00009e6f     279 (00009e40)     _RealTime1ms
00009e70     279 (00009e40)     _Flash_Capacity
00009e71     279 (00009e40)     _Flash_Step
00009e72     279 (00009e40)     _Flash_SubStep
00009e73     279 (00009e40)     _Flash_Access_1ms
00009e74     279 (00009e40)     _Modbus_RecvFront
00009e75     279 (00009e40)     _Modbus_RecvTail
00009e76     279 (00009e40)     _Modbus_SendFront
00009e77     279 (00009e40)     _Modbus_SendTail
00009e78     279 (00009e40)     _SoftScope_FSNCount
00009e7a     279 (00009e40)     _EventLog_ReadFromNum
00009e7c     279 (00009e40)     _EventLog_ReadEndNum
00009e7e     279 (00009e40)     _EventLog_ReadCurrNum

00009e80     27a (00009e80)     _EventLog_ReadDeltaNum
00009e82     27a (00009e80)     _EventLog_SendedNum
00009e84     27a (00009e80)     _EventLog_TotalNum
00009e86     27a (00009e80)     _EventLog_NewestNum
00009e88     27a (00009e80)     _EventLog_NewestNumOld
00009e8a     27a (00009e80)     _EventLog_PermitMaxNum
00009e8c     27a (00009e80)     _DataLog_ReadEndNum
00009e8e     27a (00009e80)     _DataLog_ReadFromNum
00009e90     27a (00009e80)     _SRAM_RandomRead_Addr
00009e92     27a (00009e80)     _SRAM_RandomRead_LValue
00009e94     27a (00009e80)     _ulRealTimeSecond
00009e96     27a (00009e80)     _ulRealTimeSecondSet
00009e98     27a (00009e80)     _Time_H
00009e9a     27a (00009e80)     _Time_L
00009e9c     27a (00009e80)     _Flash_Access_Ctrl
00009e9e     27a (00009e80)     _Flash_Fault_Count1ms
00009ea0     27a (00009e80)     _DataLog_SaveDigitCHBit

00009f60     27d (00009f40)     _DataLog_SaveDigitCHID

00009f80     27e (00009f80)     _DataLog_ChannelSend

0000a002     280 (0000a000)     _Conv_Type_Ver
0000a036     280 (0000a000)     _NMT_COMM
0000a037     280 (0000a000)     _NMT_COMMOld
0000a038     280 (0000a000)     _CANBSendReset_1ms
0000a039     280 (0000a000)     _CANBSendRepeat_1ms
0000a03a     280 (0000a000)     _CANBSendGP_1ms
0000a03b     280 (0000a000)     _NODE_ID
0000a03c     280 (0000a000)     _CanBSendCtrl

0000a040     281 (0000a040)     _DataLog_Trig

0000a0c2     283 (0000a0c0)     _RTM_File_Ver
0000a0f6     283 (0000a0c0)     _FPGA_Ver

0000a100     284 (0000a100)     _EventLog_ReadBuf

0000a180     286 (0000a180)     _EventLog_SaveBuf

0000a200     288 (0000a200)     _Modbus_RecvBuffer

0000a280     28a (0000a280)     _Modbus_SendBuffer

0000a300     28c (0000a300)     _SPIBuffer

0000a380     28e (0000a380)     _fCycBuf

0000a400     290 (0000a400)     _fIsrBuf

0000a480     292 (0000a480)     _iCycBuf

0000a500     294 (0000a500)     _iIsrBuf

0000a580     296 (0000a580)     _lCycBuf

0000a600     298 (0000a600)     _lIsrBuf

0000a680     29a (0000a680)     _sBalanceDataGroup
0000a683     29a (0000a680)     _sThdDataGroup
0000a689     29a (0000a680)     _sPowerDataGroup

0000a6c0     29b (0000a6c0)     _sEnergyDataGroup
0000a6fd     29b (0000a6c0)     _EventLog_BufCount
0000a6fe     29b (0000a6c0)     _EventLog_PageAddrOld

0000a700     29c (0000a700)     _CANAMB0SendBuffer

0000a760     29d (0000a740)     _InputRegBuf

0000a780     29e (0000a780)     _DataLog_AnalogAddr

0000a7c0     29f (0000a7c0)     _DataLog_DigitAddr

0000a800     2a0 (0000a800)     _Soft_Ver
0000a834     2a0 (0000a800)     _DataLog_1msOld
0000a835     2a0 (0000a800)     _DataLogTran_1msOld
0000a836     2a0 (0000a800)     _DataLog_SampleCount
0000a837     2a0 (0000a800)     _DataLog_DelayCount
0000a838     2a0 (0000a800)     _DataLog_SaveCHNum
0000a83a     2a0 (0000a800)     _DataLog_ReadPoint
0000a83c     2a0 (0000a800)     _DataLog_Fsn
0000a83e     2a0 (0000a800)     _DataLog_PageAddrOld

0000a840     2a1 (0000a840)     _HoldRegBuf
0000a876     2a1 (0000a840)     _ghalTimer0Callback
0000a87c     2a1 (0000a840)     _MCS2MPRSend_1msOld
0000a87d     2a1 (0000a840)     _MCS2MPRSend_1msOld_forNode
0000a87e     2a1 (0000a840)     _MCS2MPR_SDOCycleSendIndexCount
0000a87f     2a1 (0000a840)     _MCS2MPR_SDOCycleSendSubindexCount

0000a880     2a2 (0000a880)     _SoftScope_buffer
0000a8b2     2a2 (0000a880)     _Flash_PSNSerial
0000a8bb     2a2 (0000a880)     _MCS2MPR_NodeID
0000a8bc     2a2 (0000a880)     _BaundNum
0000a8bd     2a2 (0000a880)     _ECANB_PDOTimeInterval
0000a8be     2a2 (0000a880)     _MCS2MPR_SDOTimeInterval
0000a8bf     2a2 (0000a880)     _MCS2MPR_Reserved

0000a8c0     2a3 (0000a8c0)     _CANBMB0PDOSendBuffer
0000a8f0     2a3 (0000a8c0)     _CANATPDO

0000a900     2a4 (0000a900)     _CANBMB0SDOSendBuffer
0000a930     2a4 (0000a900)     _CANBRPDO

0000a940     2a5 (0000a940)     _CANBMB4RecvBuffer
0000a970     2a5 (0000a940)     _CANBTPDO

0000a980     2a6 (0000a980)     _CANBMB5RecvBuffer
0000a9b0     2a6 (0000a980)     _InterADValue

0000a9e8     2a7 (0000a9c0)     _CpuTimer0
0000a9f0     2a7 (0000a9c0)     _CpuTimer1
0000a9f8     2a7 (0000a9c0)     _CpuTimer2

0000aa00     2a8 (0000aa00)     _GroupCtrl
0000aa23     2a8 (0000aa00)     _ParaDownloadCtrlWordOld

0000aa40     2a9 (0000aa40)     _ResSample
0000aa60     2a9 (0000aa40)     _TemprCalc

0000aa80     2aa (0000aa80)     _VolSample
0000aaa0     2aa (0000aa80)     _CANAMB4RecvBuffer
0000aab8     2aa (0000aa80)     _DataLog_TrigAnalogAddr

0000aac0     2ab (0000aac0)     _CANAMB5RecvBuffer
0000aad8     2ab (0000aac0)     _CANAMB6RecvBuffer
0000aaf0     2ab (0000aac0)     _Monitor_ADDR

0000ab00     2ac (0000ab00)     _CANAMB7RecvBuffer
0000ab18     2ac (0000ab00)     _CANAMB8RecvBuffer
0000ab30     2ac (0000ab00)     _NTC_tempf

0000ab40     2ad (0000ab40)     _SoftScope_AnalogChaddr
0000ab50     2ad (0000ab40)     _SoftScope_DigitChaddr
0000ab60     2ad (0000ab40)     _DataLog_TrigDigitAddr
0000ab68     2ad (0000ab40)     _SoftScope_AnalogChID
0000ab70     2ad (0000ab40)     _SoftScope_DigitChBit
0000ab78     2ad (0000ab40)     _SoftScope_DigitChID

0000ab88     2ae (0000ab80)     _ECANA_CH2_NodeID
0000ab89     2ae (0000ab80)     _ECANA_MPR2NPR_NodeID
0000ab8a     2ae (0000ab80)     _ECANA_Reserved
0000ab8b     2ae (0000ab80)     _ECANA_Toggle
0000ab8c     2ae (0000ab80)     _ECANA_PDOTimeInterval
0000ab8d     2ae (0000ab80)     _ECANA_NMTTimeInterval
0000ab8e     2ae (0000ab80)     _MonTx_EndReal
0000ab8f     2ae (0000ab80)     _MonTx_1msValueOld
0000ab90     2ae (0000ab80)     _MonTx_Flag
0000ab91     2ae (0000ab80)     _MonTx_1msCount
0000ab92     2ae (0000ab80)     _MonTx_BusyCount
0000ab93     2ae (0000ab80)     _TxPINFlag
0000ab94     2ae (0000ab80)     ___TI_enable_exit_profile_output
0000ab96     2ae (0000ab80)     ___TI_cleanup_ptr
0000ab98     2ae (0000ab80)     ___TI_dtors_ptr
0000ab9a     2ae (0000ab80)     _BOARD_ADDR
0000ab9b     2ae (0000ab80)     _RTM_Reserved
0000ab9c     2ae (0000ab80)     _RTM_fReserved
0000ab9e     2ae (0000ab80)     _DataLog_TrigAnalogCHID
0000aba2     2ae (0000ab80)     _DataLog_TrigAnalogCHThr
0000aba6     2ae (0000ab80)     _DataLog_TrigAnalogValueOld
0000abaa     2ae (0000ab80)     _DataLog_TrigDigitCHBit
0000abae     2ae (0000ab80)     _DataLog_TrigDigitCHID
0000abb2     2ae (0000ab80)     _RTUGroup
0000abb6     2ae (0000ab80)     _SpCAN_CallbackTx

0000abc0     2af (0000abc0)     _CANA_Send_Busy
0000abc1     2af (0000abc0)     _CANASendReset_1ms
0000abc2     2af (0000abc0)     _CANASendGP_1ms
0000abc3     2af (0000abc0)     _Flash_MID
0000abd0     2af (0000abc0)     __lock
0000abd2     2af (0000abc0)     __unlock
0000abd6     2af (0000abc0)     _RTU_Reserved
0000abd7     2af (0000abc0)     _SCope_Time1msOld

0000f000     3c0 (0000f000)     _SDSendBuff

0000f0c0     3c3 (0000f0c0)     _SDRecvBuff

00200000    8000 (00200000)     _DataLog_Buf

0022bf40    8afd (0022bf40)     _DataLog_SendBuf

0033a4fc    ce93 (0033a4c0)     _CrcTab

0033a5fc    ce97 (0033a5c0)     _PieVectTableInit

0033a6fc    ce9b (0033a6c0)     _sHoldReg_Group

0033a7c0    ce9f (0033a7c0)     _sParaData_Group14

0033a858    cea1 (0033a840)     _sInputReg_Group

0033a8dc    cea3 (0033a8c0)     _sParaData_Group16

0033a95c    cea5 (0033a940)     _sParaData_Group13

0033a9cc    cea7 (0033a9c0)     _MCS2MPR_CANSDOSummary

0033aa38    cea8 (0033aa00)     _sParaData_Summary

0033aaa0    ceaa (0033aa80)     _sParaData_Group6

0033aae0    ceab (0033aac0)     _MPR2NPR_RPDOObj

0033ab1c    ceac (0033ab00)     _MPR2NPR_TPDOObj

0033ab58    cead (0033ab40)     _MCS2MPR_RPDOObj

0033ab88    ceae (0033ab80)     _MCS2MPR_TPDOObj
0033abb8    ceae (0033ab80)     _decomp

0033abe8    ceaf (0033abc0)     _sParaData_Group8

0033ac18    ceb0 (0033ac00)     _sParaData_Group10

0033ac44    ceb1 (0033ac40)     _sParaData_Group4
0033ac70    ceb1 (0033ac40)     _sParaData_Group15

0033ac94    ceb2 (0033ac80)     _sParaData_Group25
0033acb8    ceb2 (0033ac80)     _sParaData_Group5

0033acdc    ceb3 (0033acc0)     _sParaData_Group1
0033acfc    ceb3 (0033acc0)     _sParaData_Group9

0033ad70    ceb5 (0033ad40)     _sParaData_Group11

0033adda    ceb7 (0033adc0)     _sParaData_Group23
0033adf2    ceb7 (0033adc0)     _sParaData_Group2

0033ae06    ceb8 (0033ae00)     _MPR2NPR_SDOObject_0x4012
0033ae18    ceb8 (0033ae00)     _MPR2NPR_SDOObject_0x4013
0033ae2a    ceb8 (0033ae00)     _sParaData_Group3
0033ae3a    ceb8 (0033ae00)     _sParaData_Group7

0033ae4a    ceb9 (0033ae40)     _MCS2MPR_SDOObject_0x1000
0033ae56    ceb9 (0033ae40)     _MCS2MPR_SDOObject_0x1005
0033ae62    ceb9 (0033ae40)     _MCS2MPR_SDOObject_0x1006
0033ae6e    ceb9 (0033ae40)     _MCS2MPR_SDOObject_0x100C
0033ae7a    ceb9 (0033ae40)     _MCS2MPR_SDOObject_0x100D

0033ae86    ceba (0033ae80)     _MCS2MPR_SDOObject_0x1018
0033ae92    ceba (0033ae80)     _MCS2MPR_SDOObject_0x2000
0033ae9e    ceba (0033ae80)     _MCS2MPR_SDOObject_0x2001
0033aeaa    ceba (0033ae80)     _MCS2MPR_SDOObject_0x2002
0033aeb6    ceba (0033ae80)     _MCS2MPR_SDOObject_0x2003

0033aec2    cebb (0033aec0)     _MCS2MPR_SDOObject_0x2010
0033aece    cebb (0033aec0)     _MCS2MPR_SDOObject_0x2011
0033aeda    cebb (0033aec0)     _MCS2MPR_SDOObject_0x2012
0033aee6    cebb (0033aec0)     _MCS2MPR_SDOObject_0x2013
0033aef2    cebb (0033aec0)     _MCS2MPR_SDOObject_0x2014
0033aefe    cebb (0033aec0)     _MCS2MPR_SDOObject_0x2015

0033af0a    cebc (0033af00)     _MCS2MPR_SDOObject_0x2016
0033af16    cebc (0033af00)     _MCS2MPR_SDOObject_0x2017
0033af22    cebc (0033af00)     _MCS2MPR_SDOObject_0x2018
0033af2e    cebc (0033af00)     _MCS2MPR_SDOObject_0x2019
0033af3a    cebc (0033af00)     _MCS2MPR_SDOObject_0x201A

0033af46    cebd (0033af40)     _MCS2MPR_SDOObject_0x201B
0033af52    cebd (0033af40)     _MCS2MPR_SDOObject_0x201C
0033af5e    cebd (0033af40)     _MCS2MPR_SDOObject_0x201D
0033af6a    cebd (0033af40)     _MCS2MPR_SDOObject_0x201E
0033af76    cebd (0033af40)     _MCS2MPR_SDOObject_0x201F

0033af82    cebe (0033af80)     _MPR2NPR_CANSDOSummary
0033af94    cebe (0033af80)     _sParaData_Group12
0033af98    cebe (0033af80)     _sParaData_Group17
0033af9c    cebe (0033af80)     _sParaData_Group18
0033afa0    cebe (0033af80)     _sParaData_Group19
0033afa4    cebe (0033af80)     _sParaData_Group20
0033afa8    cebe (0033af80)     _sParaData_Group21
0033afac    cebe (0033af80)     _sParaData_Group22
0033afb0    cebe (0033af80)     _sParaData_Group24

0033fff8    cfff (0033ffc0)     _CsmPwl

00380090    e002 (00380080)     _PartIdRegs

003fe000    ff80 (003fe000)     _IQsinTable

003fe100    ff84 (003fe100)     _IQcosTable

003fe400    ff90 (003fe400)     _IQsinTableEnd

003fe502    ff94 (003fe500)     _IQcosTableEnd
003fe502    ff94 (003fe500)     _IQdivRoundSatTable
003fe510    ff94 (003fe500)     _IQdivTable

003fe712    ff9c (003fe700)     _IQdivTableEnd
003fe712    ff9c (003fe700)     _IQisqrtRoundSatTable
003fe712    ff9c (003fe700)     _IQsqrtRoundSatTable
003fe722    ff9c (003fe700)     _IQisqrtTable
003fe722    ff9c (003fe700)     _IQsqrtTable

003fe824    ffa0 (003fe800)     _IQatan2HalfPITable
003fe824    ffa0 (003fe800)     _IQisqrtTableEnd
003fe824    ffa0 (003fe800)     _IQsqrtTableEnd

003fe862    ffa1 (003fe840)     _IQatan2Table

003fe9e8    ffa7 (003fe9c0)     _IQ30mpyRndSatTable
003fe9e8    ffa7 (003fe9c0)     _IQatan2TableEnd
003fe9e8    ffa7 (003fe9c0)     _IQmpyRndSatTable
003fe9f4    ffa7 (003fe9c0)     _IQ29mpyRndSatTable

003fea00    ffa8 (003fea00)     _IQ28mpyRndSatTable
003fea0c    ffa8 (003fea00)     _IQ27mpyRndSatTable
003fea18    ffa8 (003fea00)     _IQ26mpyRndSatTable
003fea24    ffa8 (003fea00)     _IQ25mpyRndSatTable
003fea30    ffa8 (003fea00)     _IQ24mpyRndSatTable
003fea3c    ffa8 (003fea00)     _IQ23mpyRndSatTable

003fea48    ffa9 (003fea40)     _IQ22mpyRndSatTable
003fea54    ffa9 (003fea40)     _IQ21mpyRndSatTable
003fea60    ffa9 (003fea40)     _IQ20mpyRndSatTable
003fea6c    ffa9 (003fea40)     _IQ19mpyRndSatTable
003fea78    ffa9 (003fea40)     _IQ18mpyRndSatTable

003fea84    ffaa (003fea80)     _IQ17mpyRndSatTable
003fea90    ffaa (003fea80)     _IQ16mpyRndSatTable
003fea9c    ffaa (003fea80)     _IQ15mpyRndSatTable
003feaa8    ffaa (003fea80)     _IQ14mpyRndSatTable
003feab4    ffaa (003fea80)     _IQ13mpyRndSatTable

003feac0    ffab (003feac0)     _IQ12mpyRndSatTable
003feacc    ffab (003feac0)     _IQ11mpyRndSatTable
003fead8    ffab (003feac0)     _IQ10mpyRndSatTable
003feae4    ffab (003feac0)     _IQ9mpyRndSatTable
003feaf0    ffab (003feac0)     _IQ8mpyRndSatTable
003feafc    ffab (003feac0)     _IQ7mpyRndSatTable

003feb08    ffac (003feb00)     _IQ6mpyRndSatTable
003feb14    ffac (003feb00)     _IQ5mpyRndSatTable
003feb20    ffac (003feb00)     _IQ4mpyRndSatTable
003feb2c    ffac (003feb00)     _IQ3mpyRndSatTable
003feb38    ffac (003feb00)     _IQ2mpyRndSatTable

003feb44    ffad (003feb40)     _IQ1mpyRndSatTable
003feb50    ffad (003feb40)     _IQmpyRndSatTableEnd


GLOBAL SYMBOLS: SORTED ALPHABETICALLY BY Name 

page  address   name                                
----  -------   ----                                
0     00330000  .text                               
0     00339276  C$$EXIT                             
0     00338e46  FS$$DIV                             
0     003392e9  I$$DIV                              
0     003392fa  I$$MOD                              
0     0033924c  L$$DIV                              
0     0033925b  L$$MOD                              
0     0033935a  U$$DIV                              
0     0033935f  U$$MOD                              
0     00339269  UL$$DIV                             
0     00339270  UL$$MOD                             
0     003365f0  _ADCINT_ISR                         
0     00380080  _ADC_cal                            
1     00000b00  _AdcMirror                          
1     00007100  _AdcRegs                            
1     00009423  _AlarmWord1                         
1     00009424  _AlarmWord2                         
1     00009425  _AlarmWord3                         
1     00009426  _AlarmWord4                         
1     00009427  _AlarmWord5                         
1     00009428  _AlarmWord6                         
1     00009429  _AlarmWord7                         
1     0000942a  _AlarmWord8                         
0     003372dd  _AlarmWord_Clear                    
0     00337271  _AlarmWord_Map                      
1     0000942b  _AlmCnt_OpearatError                
1     000096ae  _AlmThr_OverCurr_Irms               
1     000096a6  _AlmThr_OverDvalue_Freq             
1     000096b2  _AlmThr_OverImba_Curr               
1     000096b0  _AlmThr_OverImba_Volt               
1     000096a8  _AlmThr_OverTemp_IGBT               
1     000096aa  _AlmThr_OverVolt_Udc                
1     0000969e  _AlmThr_OverVolt_Work1              
1     000096a2  _AlmThr_OverVolt_Work2              
1     000096ac  _AlmThr_UnderVolt_Udc               
1     000096a0  _AlmThr_UnderVolt_Work1             
1     000096a4  _AlmThr_UnderVolt_Work2             
1     0000ab9a  _BOARD_ADDR                         
1     0000a8bc  _BaundNum                           
1     00009477  _BreakCtrlWord                      
1     00009478  _BreakStatusWord                    
0     00335a28  _CANAMB0HardwareSend                
1     0000a700  _CANAMB0SendBuffer                  
1     00009e0d  _CANAMB0SendFront                   
1     00009e0e  _CANAMB0SendTeal                    
0     00335dc0  _CANAMB10HardwareRecv               
0     00335acb  _CANAMB4HardwareRecv                
1     0000aaa0  _CANAMB4RecvBuffer                  
1     00009e11  _CANAMB4RecvFront                   
1     00009e12  _CANAMB4RecvTeal                    
0     00335b4f  _CANAMB5HardwareRecv                
1     0000aac0  _CANAMB5RecvBuffer                  
1     00009e15  _CANAMB5RecvFront                   
1     00009e16  _CANAMB5RecvTeal                    
0     00335bcc  _CANAMB6HardwareRecv                
1     0000aad8  _CANAMB6RecvBuffer                  
1     00009e19  _CANAMB6RecvFront                   
1     00009e1a  _CANAMB6RecvTeal                    
0     00335c49  _CANAMB7HardwareRecv                
1     0000ab00  _CANAMB7RecvBuffer                  
1     00009e1d  _CANAMB7RecvFront                   
1     00009e1e  _CANAMB7RecvTeal                    
0     00335cc6  _CANAMB8HardwareRecv                
1     0000ab18  _CANAMB8RecvBuffer                  
1     00009e21  _CANAMB8RecvFront                   
1     00009e22  _CANAMB8RecvTeal                    
0     00335d43  _CANAMB9HardwareRecv                
1     00009d29  _CANARPDO                           
0     003350b4  _CANARecv_isr                       
1     0000abc2  _CANASendGP_1ms                     
1     0000abc1  _CANASendReset_1ms                  
1     0000a8f0  _CANATPDO                           
1     00009e13  _CANA_CH1_HCount                    
1     00009e14  _CANA_CH1_LCount                    
1     00009e17  _CANA_CH2_HCount                    
1     00009e18  _CANA_CH2_LCount                    
1     00009e1b  _CANA_CH3_HCount                    
1     00009e1c  _CANA_CH3_LCount                    
1     00009e1f  _CANA_CH4_HCount                    
1     00009e20  _CANA_CH4_LCount                    
1     00009e23  _CANA_CH5_HCount                    
1     00009e24  _CANA_CH5_LCount                    
0     00338b0a  _CANA_Error_ISR                     
0     0033937e  _CANA_NPR_Recv_MPR                  
0     0033937d  _CANA_NPR_Send_MPR                  
1     0000abc0  _CANA_Send_Busy                     
0     00338ab1  _CANA_TxRx_ISR                      
0     00337ab4  _CANBMB0HardwareSend                
1     0000a8c0  _CANBMB0PDOSendBuffer               
1     00009e25  _CANBMB0PDOSendFront                
1     00009e26  _CANBMB0PDOSendTeal                 
1     0000a900  _CANBMB0SDOSendBuffer               
1     00009e27  _CANBMB0SDOSendFront                
1     00009e28  _CANBMB0SDOSendTeal                 
0     00008000  _CANBMB4HardwareRecv                
1     0000a940  _CANBMB4RecvBuffer                  
1     00009e29  _CANBMB4RecvFront                   
1     00009e2a  _CANBMB4RecvTeal                    
0     000080bb  _CANBMB5HardwareRecv                
1     0000a980  _CANBMB5RecvBuffer                  
1     00009e2b  _CANBMB5RecvFront                   
1     00009e2c  _CANBMB5RecvTeal                    
1     0000a930  _CANBRPDO                           
0     0033512e  _CANBRecv_isr                       
1     0000a03a  _CANBSendGP_1ms                     
1     0000a039  _CANBSendRepeat_1ms                 
1     0000a038  _CANBSendReset_1ms                  
1     0000a970  _CANBTPDO                           
0     00337aa5  _CANBVariableInit                   
0     00338d0b  _CANB_NPR_Recv_MCS                  
0     00338d0a  _CANB_NPR_Send_MCS                  
0     00338d3d  _CANB_Sector_Recv_Power             
0     00338d0c  _CANB_Sector_Send_Power             
1     00009e0a  _CANSend_1ms                        
1     00009e0b  _CANSend_1msOld                     
0     00337e9e  _CAN_FIFO_GetHighWaterMarkTx        
0     00337eab  _CAN_FIFO_Init                      
0     00337ee2  _CAN_FIFO_InitCallbacks             
0     00337eec  _CAN_FIFO_SetupTx                   
0     00337f25  _CAN_FIFO_Write                     
0     00337f13  _CAN_InitWrite                      
0     003325b6  _CAN_Pub_CHx_NMTRecv_Slaver         
0     003323e6  _CAN_Pub_CHx_ProtocalRecv           
0     003327ed  _CAN_Pub_CHx_SDO_ProtocalRecv_Master
0     00332908  _CAN_Pub_CHx_SDO_ProtocalRecv_Slaver
0     00332612  _CAN_Pub_CHx_SDO_ProtocalSend       
0     003322fe  _CAN_Pub_High_CHx_ProtocalSend      
0     00332268  _CAN_Pub_Low_CHx_ProtocalSend       
1     000094af  _CAN_SectorRst_Flag                 
1     000094b0  _CAN_SectorRst_FlagOld              
0     003384e6  _CMD02_WriteData                    
0     003384c1  _CMD03_ReadData                     
0     0033843d  _CMD06_Wr_en                        
0     0033854d  _CMD20_SectorErase                  
0     0033852f  _CMD4B_Read_UniqueID                
0     00338497  _CMD66_ResetEn                      
0     003384a5  _CMD99_Reset                        
0     00338519  _CMD9F_Read_JEDECID                 
0     003384b3  _CMDB7_Enter_4ByteAddr              
0     0033850b  _CMDC7_ChipErase                    
0     00338474  _CMD_Rd_Status                      
0     00338449  _CMD_Wr_Status                      
0     00334cff  _CPLDSWVerRead                      
0     00337c7d  _CRC_Check                          
0     0033631e  _Cal_ADReg2Vol                      
0     00336371  _Cal_NTC10K_R2Temp                  
0     00336412  _Cal_NTC5K_R2Temp                   
0     0033632e  _Cal_NTC_Volt2R                     
0     003364b3  _Cal_PT100_Volt2Temp                
1     0000a03c  _CanBSendCtrl                       
0     00336848  _CanRecvDrive                       
0     0033685f  _CanSendDrive                       
1     00009410  _Can_Temp_Flag                      
0     00336ae1  _CanaCheckRxStatus                  
0     00336af7  _CanaClearAllFlags                  
0     003316ae  _ComToDataLogCmd                    
0     003343f4  _ComToEventRead                     
0     00331690  _Comm_heartbeatToggle               
0     003390f5  _ConfigCpuTimer                     
0     00330797  _ConvInner_CANAComm                 
0     0033082d  _ConvInner_CANBComm                 
1     000097ca  _Conv_List_Ver                      
1     0000a002  _Conv_Type_Ver                      
0     00330931  _CoolFanCtrl                        
1     0000a9e8  _CpuTimer0                          
1     00000c00  _CpuTimer0Regs                      
1     0000a9f0  _CpuTimer1                          
1     00000c08  _CpuTimer1Regs                      
1     0000a9f8  _CpuTimer2                          
1     00000c10  _CpuTimer2Regs                      
0     0033a4fc  _CrcTab                             
1     0033fff8  _CsmPwl                             
1     00000ae0  _CsmRegs                            
0     00338a80  _CsmUnlock                          
1     000094a2  _CtrlCnt_AddBusOk                   
1     000094a0  _CtrlCnt_FltDlyUV1                  
1     000094a1  _CtrlCnt_FltDlyUV2                  
1     0000949c  _CtrlCnt_IOFltDelay                 
1     0000949b  _CtrlCnt_IORstRefFeed               
1     0000949a  _CtrlCnt_IORunRefFeed               
1     00009496  _CtrlCnt_IgbtFanOn                  
1     00009497  _CtrlCnt_LedTogg                    
1     00009499  _CtrlCnt_ManUnload                  
1     0000949d  _CtrlCnt_ReactorFanOn               
1     00009498  _CtrlCnt_RstDelay                   
1     0000949e  _CtrlCnt_SofaStart                  
1     00009495  _CtrlCnt_StartCheck                 
1     0000949f  _CtrlCnt_StartNpr                   
1     00009476  _CtrlModeWord                       
1     000097b8  _CtrlThr_ChopIn_UdcH                
1     000097ba  _CtrlThr_ChopOut_UdcL               
1     000097be  _CtrlThr_FanIgbtOff_TempL           
1     000097bc  _CtrlThr_FanIgbtOn_TempH            
1     000097c0  _CtrlThr_LockPwm_Ipeak              
1     00009493  _CtrlThr_LockPwm_Time               
1     000094d4  _CtrlThr_ReactorOff_TempH           
1     000094d2  _CtrlThr_ReactorOn_TempH            
1     000097c2  _CtrlThr_UnLockPwm_Ipeak            
1     0000971a  _CurrFrontfeed_Coeff                
1     00009728  _CurrRef_InductLoad                 
1     00009464  _Curr_Har1_En                       
1     000097fe  _Curr_Har1_EnDelayCount             
1     000096f2  _Curr_Har1_Loop_Ki                  
1     000096f0  _Curr_Har1_Loop_Kp                  
1     000096f4  _Curr_Har1_Loop_Lim                 
1     00009465  _Curr_Har1_Order                    
1     000096ec  _Curr_Har1_alOut                    
1     000096ee  _Curr_Har1_beOut                    
1     000096dc  _Curr_Har1_d                        
1     000096e4  _Curr_Har1_dErr                     
1     000096e8  _Curr_Har1_dErrtotal                
1     000096f6  _Curr_Har1_dLoop_Out                
1     000096e0  _Curr_Har1_df                       
1     000096de  _Curr_Har1_q                        
1     000096e6  _Curr_Har1_qErr                     
1     000096ea  _Curr_Har1_qErrtotal                
1     000096f8  _Curr_Har1_qLoop_Out                
1     000096e2  _Curr_Har1_qf                       
1     00009466  _Curr_Har2_En                       
1     000097ff  _Curr_Har2_EnDelayCount             
1     00009710  _Curr_Har2_Loop_Ki                  
1     0000970e  _Curr_Har2_Loop_Kp                  
1     00009712  _Curr_Har2_Loop_Lim                 
1     00009467  _Curr_Har2_Order                    
1     0000970a  _Curr_Har2_alOut                    
1     0000970c  _Curr_Har2_beOut                    
1     000096fa  _Curr_Har2_d                        
1     00009702  _Curr_Har2_dErr                     
1     00009706  _Curr_Har2_dErrtotal                
1     00009714  _Curr_Har2_dLoop_Out                
1     000096fe  _Curr_Har2_df                       
1     000096fc  _Curr_Har2_q                        
1     00009704  _Curr_Har2_qErr                     
1     00009708  _Curr_Har2_qErrtotal                
1     00009716  _Curr_Har2_qLoop_Out                
1     00009700  _Curr_Har2_qf                       
1     000095ee  _Curr_Imbalance                     
0     0033651e  _DATALOG_ISR                        
0     00336712  _DINTCH1_ISR                        
0     0033671c  _DINTCH2_ISR                        
0     00336726  _DINTCH3_ISR                        
0     00336730  _DINTCH4_ISR                        
0     0033673a  _DINTCH5_ISR                        
0     00336744  _DINTCH6_ISR                        
0     00338e1c  _DMAAccessNum                       
0     00338e31  _DMA_ChannelReset                   
0     00338db9  _DMA_Init                           
1     00009e5d  _DataLogStep                        
1     0000a835  _DataLogTran_1msOld                 
1     0000a834  _DataLog_1msOld                     
1     00009e4b  _DataLog_AnalagCHNum                
1     0000a780  _DataLog_AnalogAddr                 
1     00200000  _DataLog_Buf                        
0     00331ad9  _DataLog_Cache                      
1     00009f80  _DataLog_ChannelSend                
1     00009e48  _DataLog_CtrlCmd                    
1     00009e59  _DataLog_DataSendNum                
0     00331704  _DataLog_Data_FlashRead             
1     0000a837  _DataLog_DelayCount                 
1     0000a7c0  _DataLog_DigitAddr                  
1     00009e4c  _DataLog_DigitCHNum                 
1     0000a83c  _DataLog_Fsn                        
1     00009e58  _DataLog_IndexSendNum               
0     003317c6  _DataLog_Index_FlashRead            
1     00009e4a  _DataLog_ManTrigCmd                 
1     00009e56  _DataLog_NewestNum                  
1     00009e57  _DataLog_NewestNumOld               
1     00009e5a  _DataLog_NumCount                   
1     0000a83e  _DataLog_PageAddrOld                
1     00009e54  _DataLog_PermitMaxNum               
1     00009e53  _DataLog_ReadCmd                    
1     00009e8c  _DataLog_ReadEndNum                 
1     00009e8e  _DataLog_ReadFromNum                
1     0000a83a  _DataLog_ReadPoint                  
1     00009e4d  _DataLog_SampPeriod                 
1     0000a836  _DataLog_SampleCount                
0     00331fd6  _DataLog_Save                       
1     00009be0  _DataLog_SaveAnalogCHID             
1     0000a838  _DataLog_SaveCHNum                  
1     00009ea0  _DataLog_SaveDigitCHBit             
1     00009f60  _DataLog_SaveDigitCHID              
1     00009e5c  _DataLog_SaveStepCount              
1     00009e4e  _DataLog_Savepers                   
0     00331838  _DataLog_Send                       
1     0022bf40  _DataLog_SendBuf                    
1     00009e55  _DataLog_TotalNum                   
1     0000a040  _DataLog_Trig                       
1     0000aab8  _DataLog_TrigAnalogAddr             
1     00009e4f  _DataLog_TrigAnalogCHEnSet          
1     0000ab9e  _DataLog_TrigAnalogCHID             
1     00009e50  _DataLog_TrigAnalogCHModeSet        
1     0000aba2  _DataLog_TrigAnalogCHThr            
1     0000aba6  _DataLog_TrigAnalogValueOld         
0     003319b6  _DataLog_TrigCtrl                   
1     0000ab60  _DataLog_TrigDigitAddr              
1     0000abaa  _DataLog_TrigDigitCHBit             
1     00009e51  _DataLog_TrigDigitCHEnSet           
1     0000abae  _DataLog_TrigDigitCHID              
1     00009e52  _DataLog_TrigDigitCHModeSet         
1     00009e5b  _DataLog_TrigDigitValueOld          
1     00009e49  _DataLog_TrigMode                   
0     00332160  _DataLog_VariebInit                 
0     00336835  _DeinitCanDrive                     
1     00000880  _DevEmuRegs                         
1     00009401  _DeviceNum                          
0     00008172  _Dis_PWM                            
0     003389bf  _DisableDog                         
1     00001000  _DmaRegs                            
1     00009468  _DspToFpgaWord                      
0     0033679e  _ECAN0INTA_ISR                      
0     003367b2  _ECAN0INTB_ISR                      
0     003367a8  _ECAN1INTA_ISR                      
0     003367bc  _ECAN1INTB_ISR                      
1     00009e0f  _ECANA_CH1_SDOIndex                 
1     00009e10  _ECANA_CH1_SDOSubIndex              
1     0000ab88  _ECANA_CH2_NodeID                   
1     0000942e  _ECANA_FaultCode                    
1     0000942f  _ECANA_FaultMask                    
1     0000ab89  _ECANA_MPR2NPR_NodeID               
1     0000ab8d  _ECANA_NMTTimeInterval              
1     0000ab8c  _ECANA_PDOTimeInterval              
1     0000ab8a  _ECANA_Reserved                     
1     0000ab8b  _ECANA_Toggle                       
1     0000a8bd  _ECANB_PDOTimeInterval              
1     00009e0c  _ECAN_CommFlag                      
0     00336686  _ECAP1_INT_ISR                      
0     00336690  _ECAP2_INT_ISR                      
0     0033669a  _ECAP3_INT_ISR                      
0     003366a4  _ECAP4_INT_ISR                      
0     003366ae  _ECAP5_INT_ISR                      
0     003366b8  _ECAP6_INT_ISR                      
1     00006040  _ECanaLAMRegs                       
1     000060c0  _ECanaMOTORegs                      
1     00006080  _ECanaMOTSRegs                      
1     00006100  _ECanaMboxes                        
1     00006000  _ECanaRegs                          
1     00006240  _ECanbLAMRegs                       
1     000062c0  _ECanbMOTORegs                      
1     00006280  _ECanbMOTSRegs                      
1     00006300  _ECanbMboxes                        
1     00006200  _ECanbRegs                          
1     00006a00  _ECap1Regs                          
1     00006a20  _ECap2Regs                          
1     00006a40  _ECap3Regs                          
1     00006a60  _ECap4Regs                          
1     00006a80  _ECap5Regs                          
1     00006aa0  _ECap6Regs                          
0     0033333a  _EEPROM25LC1024SPIReadData          
0     00333314  _EEPROM25LC1024SPITransferByte      
0     00333309  _EEPROM25LC1024SPITransferData      
0     00333327  _EEPROM25LC1024SPITransferWord      
0     00333341  _EEPROM25LC1024SPIWriteData         
0     003375ee  _EEPROMAccess                       
1     00009e66  _EEPROMAceNum                       
0     003337f4  _EEPROMChipErase                    
0     003338d6  _EEPROMESIDRead                     
0     00333605  _EEPROMPageErase                    
1     00009e65  _EEPROMReadCtrl                     
0     003336ff  _EEPROMSectorErase                  
1     00009e64  _EEPROMWriteCtrl                    
0     0033885f  _EEPROM_CS_Dis                      
0     00338858  _EEPROM_CS_En                       
0     00336532  _EMUINT_ISR                         
0     0033664a  _EPWM1_INT_ISR                      
0     0033660e  _EPWM1_TZINT_ISR                    
0     00334d48  _EPWM1_TZINT_isr                    
0     00336654  _EPWM2_INT_ISR                      
0     00336618  _EPWM2_TZINT_ISR                    
0     0033665e  _EPWM3_INT_ISR                      
0     00336622  _EPWM3_TZINT_ISR                    
0     00336668  _EPWM4_INT_ISR                      
0     0033662c  _EPWM4_TZINT_ISR                    
0     00336672  _EPWM5_INT_ISR                      
0     00336636  _EPWM5_TZINT_ISR                    
0     0033667c  _EPWM6_INT_ISR                      
0     00336640  _EPWM6_TZINT_ISR                    
1     00006800  _EPwm1Regs                          
1     00006840  _EPwm2Regs                          
1     00006880  _EPwm3Regs                          
1     000068c0  _EPwm4Regs                          
1     00006900  _EPwm5Regs                          
1     00006940  _EPwm6Regs                          
0     003366c2  _EQEP1_INT_ISR                      
0     003366cc  _EQEP2_INT_ISR                      
1     00006b00  _EQep1Regs                          
1     00006b40  _EQep2Regs                          
0     00337aa0  _En_PWM                             
0     003389c7  _EnableDog                          
0     003392be  _EnableInterrupts                   
1     00009624  _Errtotal_Id                        
1     00009638  _Errtotal_Idn                       
1     0000962e  _Errtotal_Iq                        
1     00009644  _Errtotal_Iqn                       
1     00009662  _Errtotal_Ud                        
1     00009656  _Errtotal_Udc                       
1     00009672  _Errtotal_Udn                       
1     0000966a  _Errtotal_Uq                        
1     0000967a  _Errtotal_Uqn                       
1     00009e46  _EventLogStep                       
1     0000a6fd  _EventLog_BufCount                  
0     00334535  _EventLog_BufSave                   
1     00009e47  _EventLog_HardReset                 
1     00009e86  _EventLog_NewestNum                 
1     00009e88  _EventLog_NewestNumOld              
0     0033471b  _EventLog_Pack                      
1     0000a6fe  _EventLog_PageAddrOld               
1     00009e8a  _EventLog_PermitMaxNum              
0     00334477  _EventLog_Read                      
1     0000a100  _EventLog_ReadBuf                   
1     00009e42  _EventLog_ReadCmd                   
1     00009e7e  _EventLog_ReadCurrNum               
1     00009e80  _EventLog_ReadDeltaNum              
1     00009e7c  _EventLog_ReadEndNum                
1     00009e7a  _EventLog_ReadFromNum               
1     0000a180  _EventLog_SaveBuf                   
1     00009e44  _EventLog_SaveEnd                   
1     00009e43  _EventLog_SaveFront                 
0     0033469a  _EventLog_SectorSave                
1     00009e82  _EventLog_SendedNum                 
1     00009e45  _EventLog_Test                      
1     00009e84  _EventLog_TotalNum                  
0     003347bd  _EventLog_VariebInit                
1     0000941f  _FPGACD4067_SelFlag                 
1     0000947a  _FPGACtrlWord                       
1     0000a0f6  _FPGA_Ver                           
1     00009404  _FanIgbt_HMI                        
1     00009489  _FastChar_1msCount                  
1     0000977a  _FastChar_AfterVolt                 
1     00009794  _FastChar_CtrlCount                 
1     00009486  _FastChar_CtrlWord                  
1     00009792  _FastChar_DCOffset                  
1     00009798  _FastChar_DownCount                 
1     0000978c  _FastChar_DownGiven                 
1     00009782  _FastChar_DownStep                  
1     00009484  _FastChar_DownTime                  
1     0000977c  _FastChar_ExitCurrSet               
1     00009778  _FastChar_HighVolt                  
1     00009796  _FastChar_HoleCount                 
1     00009483  _FastChar_HoleTime                  
1     00009481  _FastChar_PhaseSel                  
1     0000977e  _FastChar_Rate                      
1     0000978a  _FastChar_RiseGiven                 
1     00009780  _FastChar_RiseStep                  
1     00009482  _FastChar_RiseTime                  
1     00009485  _FastChar_RunStatus                 
1     00009487  _FastChar_StopWord                  
1     00009488  _FastChar_TimeCount                 
1     0000979a  _FastChar_UdCompon                  
1     00009788  _FastChar_UdRef                     
1     00009784  _FastChar_UdRefLock                 
1     00009786  _FastChar_UdRefRef                  
1     0000979c  _FastChar_UqCompon                  
1     0000978e  _FastChar_UsdOld                    
1     00009790  _FastChar_UsqOld                    
0     003371f3  _FaultMask_Map                      
1     0000945c  _FaultWord1                         
1     0000945d  _FaultWord2                         
1     0000945e  _FaultWord3                         
1     0000945f  _FaultWord4                         
1     00009460  _FaultWord5                         
1     00009461  _FaultWord6                         
1     00009462  _FaultWord7                         
1     00009463  _FaultWord8                         
0     00337187  _FaultWord_Map                      
1     000097b2  _FilterPara_Capacity                
1     000097b0  _FilterPara_Induct                  
1     0000969c  _Filter_Cap_TempLow                 
1     0000969a  _Filter_Cap_Temphigh                
1     000094b4  _FlagOld_FreqRef                    
1     000094b2  _FlagOld_VoltRef                    
1     0000946c  _Flag_DspRdFpga                     
1     0000946d  _Flag_DspWrFpga                     
1     000094a9  _Flag_EEPROMCheck                   
1     000094a7  _Flag_FanCapOn                      
1     000094a8  _Flag_FanIgbtOn                     
1     000094b3  _Flag_FreqRef                       
1     000094a5  _Flag_IORstRef                      
1     000094a6  _Flag_IORstRefOld                   
1     000094a4  _Flag_IORunRef                      
1     000094a3  _Flag_LockPWM                       
1     000094ac  _Flag_PowerOn                       
1     000094b5  _Flag_PowerOnRef                    
1     000094ab  _Flag_PwmModuMode                   
1     000094aa  _Flag_RstCmdOld                     
1     000094b1  _Flag_VoltRef                       
1     000094ad  _Flag_WorkMode                      
1     000094ae  _Flag_WorkModeOld                   
1     00009d3b  _FlashBufShadow                     
1     00000a80  _FlashRegs                          
1     00009e73  _Flash_Access_1ms                   
1     00009e9c  _Flash_Access_Ctrl                  
0     00338851  _Flash_CS_Dis                       
0     0033884c  _Flash_CS_En                        
1     00009e70  _Flash_Capacity                     
0     0033578c  _Flash_ChipErase                    
0     0033566c  _Flash_Enter_4ByteAddr              
1     00009e9e  _Flash_Fault_Count1ms               
0     00337173  _Flash_Fault_ResetVarieble          
0     00338857  _Flash_HardResetDis                 
0     00338856  _Flash_HardResetEn                  
0     003357e6  _Flash_Init                         
1     0000abc3  _Flash_MID                          
1     0000a8b2  _Flash_PSNSerial                    
0     003358cc  _Flash_Read                         
0     0033568f  _Flash_Read_JEDECID                 
0     003356de  _Flash_Read_UniqueID                
0     00335754  _Flash_SoftReset                    
1     00009e71  _Flash_Step                         
1     00009e72  _Flash_SubStep                      
0     00335612  _Flash_WrStatus                     
0     0033590b  _Flash_Write                        
1     000094c2  _FlowRate                           
1     00009442  _FltCnt_OverCurr_CapIrms            
1     00009440  _FltCnt_OverCurr_Ipeak              
1     00009441  _FltCnt_OverCurr_Irms               
1     00009445  _FltCnt_OverCurr_Isum               
1     00009443  _FltCnt_OverDvalue_Freq             
1     00009433  _FltCnt_OverDvalue_Tempr            
1     0000944e  _FltCnt_OverImba_Curr               
1     0000944d  _FltCnt_OverImba_Volt               
1     00009452  _FltCnt_OverLow_FlowRate            
1     00009434  _FltCnt_OverTemp_IGBT               
1     0000940d  _FltCnt_OverTemp_Inverter           
1     0000940e  _FltCnt_OverTemp_Rectifier          
1     0000940c  _FltCnt_OverTemp_Transformer        
1     0000943c  _FltCnt_OverTime_ACB                
1     0000944f  _FltCnt_OverTime_ACB1Out            
1     00009450  _FltCnt_OverTime_ACB2Out            
1     00009451  _FltCnt_OverTime_ACB3Out            
1     0000944b  _FltCnt_OverTime_Cap20uF            
1     0000944a  _FltCnt_OverTime_Cap40uF            
1     0000943d  _FltCnt_OverTime_FCC                
1     0000943f  _FltCnt_OverTime_FanCap             
1     0000943e  _FltCnt_OverTime_FanIgbt            
1     00009447  _FltCnt_OverTime_LockPWM            
1     00009435  _FltCnt_OverTime_MasShift           
1     0000944c  _FltCnt_OverTime_NprRun             
1     00009432  _FltCnt_OverTime_PreChar            
1     00009431  _FltCnt_OverTime_Unload             
1     0000943b  _FltCnt_OverVolt_Udc                
1     00009436  _FltCnt_OverVolt_Work1              
1     00009438  _FltCnt_OverVolt_Work2              
1     00009448  _FltCnt_ToggHigh_CAN                
1     00009449  _FltCnt_ToggLow_CAN                 
1     00009444  _FltCnt_UnderFreq_Grid              
1     0000943a  _FltCnt_UnderVolt_Udc               
1     00009437  _FltCnt_UnderVolt_Work1             
1     00009439  _FltCnt_UnderVolt_Work2             
1     00009446  _FltCnt_VolgImba_Grid               
1     000096ce  _FltThr_OverCurrEst_Ipeak           
1     000096d4  _FltThr_OverCurr_CapIrms            
1     000096cc  _FltThr_OverCurr_Ipeak              
1     000096d0  _FltThr_OverCurr_Irms               
1     000096d2  _FltThr_OverCurr_Isum               
1     000096c0  _FltThr_OverDvalue_Freq             
1     000096da  _FltThr_OverImba_Curr               
1     000096d8  _FltThr_OverImba_Volt               
1     000096d6  _FltThr_OverTemp_IGBT               
1     000094c8  _FltThr_OverTemp_Inverter           
1     000094ca  _FltThr_OverTemp_Rectifier          
1     000094c6  _FltThr_OverTemp_Transformer        
1     000096ca  _FltThr_OverTime_PreChar            
1     00009453  _FltThr_OverTimt_UnloadIn           
1     000096c6  _FltThr_OverVoltEst_Udc             
1     000096c4  _FltThr_OverVolt_Udc                
1     000096b4  _FltThr_OverVolt_Work               
1     000096b8  _FltThr_OverVolt_Work1              
1     000096bc  _FltThr_OverVolt_Work2              
1     000096c2  _FltThr_UnderFreq_Grid              
1     000096c8  _FltThr_UnderVolt_Udc               
1     000096b6  _FltThr_UnderVolt_Work              
1     000096ba  _FltThr_UnderVolt_Work1             
1     000096be  _FltThr_UnderVolt_Work2             
1     000094ba  _FpgaIdRef                          
1     000094bc  _FpgaIqRef                          
1     00009766  _FpgaMotorFreq                      
1     0000940b  _FpgaSofaFault                      
1     00009469  _FpgaToDspWord                      
1     00009400  _FpgaVerCode                        
0     00333c9f  _Freq100LPFilter                    
0     00333d31  _Freq100_700BPFilter                
0     00333dc1  _Freq40_62d5BPFilter                
0     00333a2a  _Fun2r2sConv                        
0     003339eb  _Fun2s2rConv                        
0     003339b6  _Fun2s3sConv                        
0     00330911  _FunFaultReact                      
0     00333973  _FunI3s2sConv                       
0     00333bd4  _FunPIComCtrl                       
0     00333c38  _FunPIComCtrl_DLim                  
0     00330932  _FunResetAct                        
0     003309fe  _FunStatusUpdate                    
0     00333949  _FunU3s2sConv                       
0     00337d3f  _Func_HoldReg                       
0     00337cb2  _Func_InputReg                      
0     003387ec  _GPIO_init                          
0     00336b3a  _GenerateByteCrc16                  
0     00336b0c  _GenerateWordCrc16                  
0     0033073f  _GetFlowRate_Calc                   
0     003312cd  _GetPQVIRms                         
1     00006f80  _GpioCtrlRegs                       
1     00006fc0  _GpioDataRegs                       
1     00006fe0  _GpioIntRegs                        
0     003387e3  _GpioRegs_CTRL_Config               
0     003387d0  _GpioRegs_DIR_Config                
0     003387af  _GpioRegs_MUX_Config                
1     0000956a  _GridCurrent_Angle                  
1     0000956c  _GridUconvert_Angle                 
1     00009568  _GridVolt_Angle                     
1     000095de  _GridVolt_Imbalance                 
1     0000aa00  _GroupCtrl                          
1     00009e08  _Guard_time                         
1     000097c4  _HeartbeatCheck1                    
1     000097c7  _HeartbeatCheck2                    
1     0000a840  _HoldRegBuf                         
0     0033674e  _I2CINT1A_ISR                       
0     00336758  _I2CINT2A_ISR                       
1     00007900  _I2caRegs                           
0     00336546  _ILLEGAL_ISR                        
0     0033650a  _INT13_ISR                          
0     00336514  _INT14_ISR                          
0     003306f0  _INT28335_process                   
1     00009415  _IOInput1                           
1     00009416  _IOInput2                           
1     00009419  _IOInputDisValue                    
1     00009417  _IOInputEn                          
1     00009412  _IOInputFpga1                       
1     00009413  _IOInputFpga2                       
1     00009414  _IOInputFpga3                       
1     00009418  _IOInputLogic                       
1     0000941e  _IOOutCtrl1Word                     
1     0000941a  _IOOutFpga1                         
1     0000941b  _IOOutFpga1Old                      
1     0000941c  _IOOutput1                          
1     0000941d  _IOOutput1Old                       
0     00334931  _IO_Scan                            
0     003fead8  _IQ10mpyRndSatTable                 
0     003feacc  _IQ11mpyRndSatTable                 
0     003feac0  _IQ12mpyRndSatTable                 
0     003feab4  _IQ13mpyRndSatTable                 
0     003feaa8  _IQ14mpyRndSatTable                 
0     003fea9c  _IQ15mpyRndSatTable                 
0     003fea90  _IQ16mpyRndSatTable                 
0     003fea84  _IQ17mpyRndSatTable                 
0     003fea78  _IQ18mpyRndSatTable                 
0     003fea6c  _IQ19mpyRndSatTable                 
0     003feb44  _IQ1mpyRndSatTable                  
0     003fea60  _IQ20mpyRndSatTable                 
0     003fea54  _IQ21mpyRndSatTable                 
0     003fea48  _IQ22mpyRndSatTable                 
0     003fea3c  _IQ23mpyRndSatTable                 
0     003fea30  _IQ24mpyRndSatTable                 
0     003fea24  _IQ25mpyRndSatTable                 
0     003fea18  _IQ26mpyRndSatTable                 
0     003fea0c  _IQ27mpyRndSatTable                 
0     003fea00  _IQ28mpyRndSatTable                 
0     003fe9f4  _IQ29mpyRndSatTable                 
0     003feb38  _IQ2mpyRndSatTable                  
0     003fe9e8  _IQ30mpyRndSatTable                 
0     003feb2c  _IQ3mpyRndSatTable                  
0     003feb20  _IQ4mpyRndSatTable                  
0     003feb14  _IQ5mpyRndSatTable                  
0     003feb08  _IQ6mpyRndSatTable                  
0     003feafc  _IQ7mpyRndSatTable                  
0     003feaf0  _IQ8mpyRndSatTable                  
0     003feae4  _IQ9mpyRndSatTable                  
0     003fe824  _IQatan2HalfPITable                 
0     003fe862  _IQatan2Table                       
0     003fe9e8  _IQatan2TableEnd                    
0     003fe100  _IQcosTable                         
0     003fe502  _IQcosTableEnd                      
0     003fe502  _IQdivRoundSatTable                 
0     003fe510  _IQdivTable                         
0     003fe712  _IQdivTableEnd                      
0     003fe712  _IQisqrtRoundSatTable               
0     003fe722  _IQisqrtTable                       
0     003fe824  _IQisqrtTableEnd                    
0     003fe9e8  _IQmpyRndSatTable                   
0     003feb50  _IQmpyRndSatTableEnd                
0     003fe000  _IQsinTable                         
0     003fe400  _IQsinTableEnd                      
0     003fe712  _IQsqrtRoundSatTable                
0     003fe722  _IQsqrtTable                        
0     003fe824  _IQsqrtTableEnd                     
1     000095b6  _Ia_Rms                             
1     000095bc  _Ia_Rmsf                            
1     000095c8  _Iaf_Rms                            
1     000095ce  _Iaf_Rmsf                           
1     000095b8  _Ib_Rms                             
1     000095be  _Ib_Rmsf                            
1     000095ca  _Ibf_Rms                            
1     000095d0  _Ibf_Rmsf                           
1     000095ba  _Ic_Rms                             
1     000095c0  _Ic_Rmsf                            
1     000095cc  _Icf_Rms                            
1     000095d2  _Icf_Rmsf                           
1     00009736  _IdRef_Outer                        
1     00009622  _Id_Loop_Kd                         
1     00009620  _Id_Loop_Ki                         
1     0000961e  _Id_Loop_Kp                         
1     00009618  _Id_Loop_Lim                        
1     00009626  _Id_Loop_Out                        
1     0000947c  _Id_Priority                        
1     00009744  _Id_cal_step                        
1     00009636  _Idn_Loop_Kd                        
1     00009634  _Idn_Loop_Ki                        
1     00009632  _Idn_Loop_Kp                        
1     0000963c  _Idn_Loop_Lim                       
1     0000963a  _Idn_Loop_Out                       
1     0000947e  _IdqStep_Count                      
1     0000947d  _IdqStep_CountMax                   
1     00009616  _Idq_Loop_Ki                        
1     00009614  _Idq_Loop_Kp                        
1     0000961c  _Idq_Loop_Lim                       
1     000095d6  _Ifphase_max                        
1     000095d4  _Ifphase_min                        
1     00009734  _Ig_Lim                             
1     00009536  _Igal_D90                           
1     0000953a  _Igal_N                             
1     00009538  _Igbe_D90                           
1     0000953c  _Igbe_N                             
1     00009740  _IgdRef                             
1     0000973e  _IgdRefRef                          
1     00009742  _Igd_Lim                            
1     00009748  _IgqRef                             
1     00009746  _IgqRefRef                          
1     0000974a  _Igq_Lim                            
0     003361ee  _InitAdc                            
0     00336820  _InitCanDrive                       
0     003390de  _InitCpuTimers                      
0     003386ac  _InitECana                          
0     0033869a  _InitECanaGpio                      
0     003382ec  _InitECanb                          
0     003382d6  _InitECanbGpio                      
0     00337a9d  _InitEPwm                           
0     00337878  _InitEPwm1                          
0     0033793b  _InitEPwm2                          
0     003379ec  _InitEPwm3                          
0     00008157  _InitFlash                          
0     00338a1e  _InitPeripheralClocks               
0     0033929f  _InitPieCtrl                        
0     0033930b  _InitPieVectTable                   
0     003389cf  _InitPll                            
0     00339170  _InitSpi                            
0     0033912f  _InitSpiaGpio                       
0     00338a6d  _InitSysCtrl                        
0     003348c2  _InitXintf                          
0     00330000  _Init_XINTF1                        
0     00336228  _Inner_ADCScan                      
1     0000a760  _InputRegBuf                        
1     0000a9b0  _InterADValue                       
1     000094ce  _Inverter_reactor_temp              
1     000095f0  _Ioa_Rms                            
1     00009602  _Ioa_Rmsf                           
1     000095f2  _Iob_Rms                            
1     00009604  _Iob_Rmsf                           
1     000095f4  _Ioc_Rms                            
1     00009606  _Ioc_Rmsf                           
1     000095c6  _Iphase_avg                         
1     000095c4  _Iphase_max                         
1     000095c2  _Iphase_min                         
1     00009738  _IqRef_Outer                        
1     0000962c  _Iq_Loop_Kd                         
1     0000962a  _Iq_Loop_Ki                         
1     00009628  _Iq_Loop_Kp                         
1     0000961a  _Iq_Loop_Lim                        
1     00009630  _Iq_Loop_Out                        
1     0000974c  _Iq_cal_step                        
1     00009642  _Iqn_Loop_Kd                        
1     00009640  _Iqn_Loop_Ki                        
1     0000963e  _Iqn_Loop_Kp                        
1     00009646  _Iqn_Loop_Lim                       
1     00009648  _Iqn_Loop_Out                       
1     00009720  _KVARRef_CAN                        
1     00009724  _KVARRef_PC                         
1     0000971c  _KVARRef_Sys                        
1     00009730  _KVar_Lim                           
1     00009732  _KVar_filter_Comp                   
1     00009722  _KWRefRef_CAN                       
1     00009726  _KWRefRef_PC                        
1     0000971e  _KWRefRef_Sys                       
1     0000972c  _KW_Lim                             
1     000097ae  _K_IfcForw                          
1     0000972a  _KwRef                              
0     00336802  _LUF_ISR                            
0     003367f8  _LVF_ISR                            
1     00009e09  _Life_factor                        
0     00335e6d  _Lit_2CharBuf_Int16                 
0     00335e3d  _Lit_4CharBuf_Long32                
0     003360ec  _MBM_EnergyDataProcess              
0     00335eab  _MBM_Protocol                       
0     00336185  _MBS_SendData                       
0     003391c8  _MCBSPB_Init                        
0     00339203  _MCBSP_DataBit16                    
0     003391fc  _MCBSP_DataBit8                     
1     00009d3a  _MCBSP_InitCount                    
1     00009d39  _MCBSP_Init_1msOld                  
1     0000a87c  _MCS2MPRSend_1msOld                 
1     0000a87d  _MCS2MPRSend_1msOld_forNode         
0     0033a9cc  _MCS2MPR_CANSDOSummary              
1     0000a8bb  _MCS2MPR_NodeID                     
0     00332e8b  _MCS2MPR_ProtocalRecv_Master        
0     00333011  _MCS2MPR_ProtocalRecv_Slaver        
0     00332b67  _MCS2MPR_ProtocalSend_Master        
0     00332d9c  _MCS2MPR_ProtocalSend_Slaver        
0     00332e48  _MCS2MPR_ProtocalSend_Status        
0     0033ab58  _MCS2MPR_RPDOObj                    
1     0000a8bf  _MCS2MPR_Reserved                   
1     0000a87e  _MCS2MPR_SDOCycleSendIndexCount     
1     0000a87f  _MCS2MPR_SDOCycleSendSubindexCount  
0     0033ae4a  _MCS2MPR_SDOObject_0x1000           
0     0033ae56  _MCS2MPR_SDOObject_0x1005           
0     0033ae62  _MCS2MPR_SDOObject_0x1006           
0     0033ae6e  _MCS2MPR_SDOObject_0x100C           
0     0033ae7a  _MCS2MPR_SDOObject_0x100D           
0     0033ae86  _MCS2MPR_SDOObject_0x1018           
0     0033ae92  _MCS2MPR_SDOObject_0x2000           
0     0033ae9e  _MCS2MPR_SDOObject_0x2001           
0     0033aeaa  _MCS2MPR_SDOObject_0x2002           
0     0033aeb6  _MCS2MPR_SDOObject_0x2003           
0     0033aec2  _MCS2MPR_SDOObject_0x2010           
0     0033aece  _MCS2MPR_SDOObject_0x2011           
0     0033aeda  _MCS2MPR_SDOObject_0x2012           
0     0033aee6  _MCS2MPR_SDOObject_0x2013           
0     0033aef2  _MCS2MPR_SDOObject_0x2014           
0     0033aefe  _MCS2MPR_SDOObject_0x2015           
0     0033af0a  _MCS2MPR_SDOObject_0x2016           
0     0033af16  _MCS2MPR_SDOObject_0x2017           
0     0033af22  _MCS2MPR_SDOObject_0x2018           
0     0033af2e  _MCS2MPR_SDOObject_0x2019           
0     0033af3a  _MCS2MPR_SDOObject_0x201A           
0     0033af46  _MCS2MPR_SDOObject_0x201B           
0     0033af52  _MCS2MPR_SDOObject_0x201C           
0     0033af5e  _MCS2MPR_SDOObject_0x201D           
0     0033af6a  _MCS2MPR_SDOObject_0x201E           
0     0033af76  _MCS2MPR_SDOObject_0x201F           
1     0000a8be  _MCS2MPR_SDOTimeInterval            
0     0033ab88  _MCS2MPR_TPDOObj                    
0     0033af82  _MPR2NPR_CANSDOSummary              
0     0033aae0  _MPR2NPR_RPDOObj                    
0     0033ae06  _MPR2NPR_SDOObject_0x4012           
0     0033ae18  _MPR2NPR_SDOObject_0x4013           
0     0033ab1c  _MPR2NPR_TPDOObj                    
1     0000942d  _MPR_AlarmCode                      
1     0000942c  _MPR_FaultCode                      
1     00009454  _MPR_HWFMWord0                      
1     00009455  _MPR_HWFMWord1                      
1     00009456  _MPR_HWFMWord2                      
1     00009457  _MPR_HWFMWord3                      
1     00009458  _MPR_HWFMWord4                      
1     00009459  _MPR_HWFMWord5                      
1     0000945a  _MPR_HWFMWord6                      
1     0000945b  _MPR_HWFMWord7                      
1     000095e0  _MPR_Ps                             
1     000095e6  _MPR_PsACK                          
1     000095e2  _MPR_Qs                             
1     000095e8  _MPR_QsACK                          
1     000095e4  _MPR_Ss                             
1     000095ea  _MPR_SsACK                          
0     003366fe  _MRINTA_ISR                         
0     003366ea  _MRINTB_ISR                         
0     00336708  _MXINTA_ISR                         
0     003366f4  _MXINTB_ISR                         
1     00009470  _MainCtrlWord                       
1     00009471  _MainCtrlWord_CAN                   
1     00009473  _MainCtrlWord_HMI                   
1     00009472  _MainCtrlWord_PC                    
1     00009474  _MainStusWord                       
1     00009475  _MainStusWordOld                    
1     0000947b  _Manu_Oper_Force                    
1     00009406  _Mas1ToSlaWord                      
1     00009407  _Mas2ToSlaWord                      
1     00009405  _MasToSlaWord                       
1     00005000  _McbspaRegs                         
1     00005040  _McbspbRegs                         
0     00336102  _ModbusM_StatusUpdate               
0     00336150  _ModbusMaster_Init                  
0     00338572  _ModbusRTU_Protocol                 
1     00009e31  _Modbus_1ms                         
0     00335e7b  _Modbus_CRC_Check                   
1     0000a200  _Modbus_RecvBuffer                  
1     00009e74  _Modbus_RecvFront                   
1     00009e75  _Modbus_RecvTail                    
0     0033546a  _Modbus_Recv_For_HMI                
1     0000a280  _Modbus_SendBuffer                  
1     00009e76  _Modbus_SendFront                   
1     00009e77  _Modbus_SendTail                    
0     003351c5  _Modbus_Send_To_HMI                 
1     0000ab91  _MonTx_1msCount                     
1     0000ab8f  _MonTx_1msValueOld                  
1     0000ab92  _MonTx_BusyCount                    
1     0000ab8e  _MonTx_EndReal                      
1     0000ab90  _MonTx_Flag                         
1     00009e32  _Mon_Recv_Status                    
1     0000aaf0  _Monitor_ADDR                       
0     00336b59  _Monitor_Rx_Protocol                
0     00337351  _Monitor_SingleFrame_Access         
0     00338c4e  _Monitor_Software_Read              
0     00336d31  _Monitor_Tx_Protocol                
1     000094c0  _MotorCurr_Imbalance                
1     00009762  _MotorFreqRef                       
1     00009764  _MotorFreqRefOld                    
1     00009752  _MotorFreqRef_CAN                   
1     00009754  _MotorFreqRef_HMI                   
1     00009750  _MotorFreqRef_PC                    
0     00334d28  _MotorFreq_FpgaScan                 
1     000097a8  _MotorSideCapacity                  
1     000097ac  _MotorSideCurrent                   
1     000097aa  _MotorSideVoltage                   
1     0000956e  _MotorVolt_Angle                    
1     00009572  _MotorVolt_AngleComp                
1     00009570  _MotorVolt_Freq                     
1     000094be  _MotorVolt_Imbalance                
1     00009696  _Motor_Temphigh                     
1     00009698  _Motor_Templow                      
0     0033653c  _NMI_ISR                            
1     00009e02  _NMTTimeInterval                    
1     0000a036  _NMT_COMM                           
1     0000a037  _NMT_COMMOld                        
1     0000a03b  _NODE_ID                            
1     00009e00  _NODE_STATE                         
0     00337c37  _NODE_STATE_CH                      
1     000097b4  _NPR_AngleCompensation              
1     00009430  _NPR_ConvHWAMWord                   
1     000095d8  _NPR_Power                          
1     000095da  _NPR_ReactPower                     
1     0000ab30  _NTC_tempf                          
0     00333362  _NWordReadEEPROMFIFO                
0     003334af  _NWordWriteEEPROMFIFO               
1     00009c00  _NodeEnergy                         
1     000094b6  _Operation_ineffective              
1     00009e01  _PDO_SEND_FLAG                      
0     0033680c  _PIE_RESERVED                       
1     0000968c  _PLL_ErrTotal                       
1     00009688  _PLL_Kd                             
1     00009686  _PLL_Ki                             
1     00009684  _PLL_Kp                             
1     0000968a  _PLL_Lim                            
1     00009420  _PWMTestA                           
1     00009421  _PWMTestB                           
1     00009422  _PWMTestC                           
0     00333349  _PageWriteErr                       
0     00334930  _Palarell_Extern_ADCScan            
1     00009e5e  _ParaDownloadCtrlWord               
1     0000aa23  _ParaDownloadCtrlWordOld            
1     00009e5f  _ParaDownloadFaultNum               
1     00009402  _ParaSaveFlag                       
1     00009403  _ParaSaveFlagOld                    
1     000097b6  _Para_IoFwdCoeff                    
1     00380090  _PartIdRegs                         
0     00333e68  _Phase_90Delay_Filter               
1     00000ce0  _PieCtrlRegs                        
1     00000d00  _PieVectTable                       
0     0033a5fc  _PieVectTableInit                   
1     0000946e  _PowerCtrlWord                      
1     0000946f  _PowerStatusWord                    
1     000095dc  _Power_Factor                       
0     0033887c  _RS485_Send_Dis                     
0     003388ac  _RS485_Send_Dis2                    
0     00338864  _RS485_Send_En                      
0     00338894  _RS485_Send_En2                     
1     00009e67  _RTCAccessStatus                    
1     0000a0c2  _RTM_File_Ver                       
1     0000ab9b  _RTM_Reserved                       
1     0000ab9c  _RTM_fReserved                      
0     00336528  _RTOSINT_ISR                        
1     0000abb2  _RTUGroup                           
1     0000abd6  _RTU_Reserved                       
0     00320177  _RamfuncsLoadEnd                    
0     00320000  _RamfuncsLoadStart                  
0     00008000  _RamfuncsRunStart                   
1     000097a4  _RatedPara_GridCurrent              
1     000097a6  _RatedPara_GridFrequency            
1     000097a2  _RatedPara_GridVoltage              
0     00338f47  _Read_NByte                         
0     00338f68  _Read_NWord                         
1     00009e6f  _RealTime1ms                        
0     00330863  _RealTime20msFun                    
1     000094cc  _Rectifier_reactor_temp             
1     0000aa40  _ResSample                          
1     000094b7  _Rst_Flag_HMI                       
1     000094b8  _Rst_Flag_HMIOld                    
1     00009800  _SCIBRecvBuffer                     
1     00009e35  _SCIBRecvFront                      
1     00009e36  _SCIBRecvTail                       
1     00009000  _SCIBSendBuffer                     
1     00009e33  _SCIBSendFront                      
1     00009e34  _SCIBSendTail                       
1     00009e37  _SCIBSend_1ms                       
1     00009e2e  _SCICRecvFront                      
1     00009e2d  _SCICRecvTail                       
1     00009e30  _SCICSendFront                      
1     00009e2f  _SCICSendTail                       
0     0033815a  _SCIMon_TxBusy                      
0     00338155  _SCIMon_TxEn                        
0     00336776  _SCIRXINTA_ISR                      
0     0033678a  _SCIRXINTB_ISR                      
0     00336762  _SCIRXINTC_ISR                      
0     00336780  _SCITXINTA_ISR                      
0     00336794  _SCITXINTB_ISR                      
0     0033676c  _SCITXINTC_ISR                      
1     0000abd7  _SCope_Time1msOld                   
1     0000f0c0  _SDRecvBuff                         
1     0000f000  _SDSendBuff                         
0     003365c8  _SEQ1INT_ISR                        
0     003365d2  _SEQ2INT_ISR                        
1     000094d6  _SOGI_FreqMea                       
1     000094d8  _SOGI_FreqMeaf                      
1     000094da  _SOGI_Freqff                        
1     000094dc  _SOGI_wFreqErr                      
1     0000a300  _SPIBuffer                          
0     003366d6  _SPIRXINTA_ISR                      
0     003366e0  _SPITXINTA_ISR                      
1     00009e61  _SPI_EEPRPM_BusyStatus              
1     00009e63  _SPIaddrOffset                      
1     00009e62  _SPIaddrPage                        
1     00009e90  _SRAM_RandomRead_Addr               
1     00009e92  _SRAM_RandomRead_LValue             
1     00009e60  _SRAM_RandomRead_Value              
0     00333a69  _SVPWM                              
0     00338936  _Sci_ModbusM_RxData                 
0     00338918  _Sci_ModbusM_SendArray              
0     003388c4  _Sci_ModbusM_init                   
0     00338be1  _Sci_Modbus_RxData                  
0     00338c36  _Sci_Modbus_SendArray               
0     00338c29  _Sci_Modbus_SendData                
0     00338b8d  _Sci_Modbus_init                    
0     0033819a  _Sci_Monitor_RxData                 
0     00338236  _Sci_Monitor_TxData                 
0     003381e2  _Sci_Monitor_TxMulData              
0     0033815f  _Sci_Monitor_init                   
1     00007050  _SciaRegs                           
1     00007750  _ScibRegs                           
1     00007770  _ScicRegs                           
1     00009dfc  _SendFlag1                          
1     00009dfd  _SendFlag2                          
1     00009dfe  _SendFlag3                          
1     00009dff  _SendFlag4                          
0     00338a76  _ServiceDog                         
1     00009409  _SlaToMas1Word                      
1     0000940a  _SlaToMas2Word                      
1     00009408  _SlaToMasWord                       
1     00009e3f  _SoftScope_AnalogCHNum              
1     0000ab68  _SoftScope_AnalogChID               
1     0000ab40  _SoftScope_AnalogChaddr             
1     00009e39  _SoftScope_Counter                  
1     00009e3a  _SoftScope_DataLen                  
1     00009e40  _SoftScope_DigitCHNum               
1     0000ab70  _SoftScope_DigitChBit               
1     0000ab78  _SoftScope_DigitChID                
1     0000ab50  _SoftScope_DigitChaddr              
1     00009e78  _SoftScope_FSNCount                 
1     00009e3d  _SoftScope_OnOffCmd                 
1     00009e3b  _SoftScope_OutQueueNum              
1     00009e41  _SoftScope_SampleFreq               
1     00009e3e  _SoftScope_SampleInterval           
1     00009e3c  _SoftScope_SendDataNum              
1     0000a880  _SoftScope_buffer                   
1     00009e38  _SoftScope_sts                      
1     0000a800  _Soft_Ver                           
0     00336e4a  _Software_oscilloscope              
0     00336dee  _Software_oscilloscopeInit          
0     00333f14  _Source_Select                      
1     0000abb6  _SpCAN_CallbackTx                   
1     00007040  _SpiaRegs                           
0     00338e10  _StartDMA                           
1     0000946a  _Start_WaitTime                     
1     0000946b  _Start_WaitTimeSet                  
1     00009494  _Status_MPRRun                      
1     00009492  _SysCnt_10msRmsCalc                 
1     0000948d  _SysCnt_1ms                         
1     0000948c  _SysCnt_1msBase                     
1     0000948e  _SysCnt_1msOld                      
1     00009490  _SysCnt_1s                          
1     0000948f  _SysCnt_1sBase                      
1     00009491  _SysCnt_1sOld                       
1     00007010  _SysCtrlRegs                        
1     00009e6b  _SysTime_Day                        
1     00009e6a  _SysTime_Hour                       
1     00009e6e  _SysTime_MicroSecond                
1     00009e69  _SysTime_Minute                     
1     00009e6c  _SysTime_Month                      
1     00009e68  _SysTime_Second                     
1     00009e6d  _SysTime_Year                       
0     003391b6  _TIM0_DeInit                        
0     00338b5a  _TIM0_ISR                           
0     0033917c  _TIM0_Init                          
0     003365fa  _TINT0_ISR                          
1     0000aa60  _TemprCalc                          
1     00009411  _Test_Time1ms                       
1     00009e98  _Time_H                             
1     00009e9a  _Time_L                             
0     0033517a  _Timer2INT_ISR                      
1     000094d0  _Transformer_temp                   
1     0000ab93  _TxPINFlag                          
1     00009504  _UGal_D90                           
1     00009506  _UGbe_D90                           
0     003365aa  _USER10_ISR                         
0     003365b4  _USER11_ISR                         
0     003365be  _USER12_ISR                         
0     00336550  _USER1_ISR                          
0     0033655a  _USER2_ISR                          
0     00336564  _USER3_ISR                          
0     0033656e  _USER4_ISR                          
0     00336578  _USER5_ISR                          
0     00336582  _USER6_ISR                          
0     0033658c  _USER7_ISR                          
0     00336596  _USER8_ISR                          
0     003365a0  _USER9_ISR                          
1     00009590  _Ua_Rms                             
1     00009596  _Ua_Rmsf                            
1     000095f6  _UabBus1_Rms                        
1     00009608  _UabBus1_Rmsf                       
1     000095fc  _UabBus2_Rms                        
1     0000960e  _UabBus2_Rmsf                       
1     0000959c  _Uab_Rms                            
1     000095a2  _Uab_Rmsf                           
1     000095b0  _UalbeN_Rms                         
1     000095b4  _UalbeN_Rmsf                        
1     000095ae  _UalbeP_Rms                         
1     000095b2  _UalbeP_Rmsf                        
1     00009592  _Ub_Rms                             
1     00009598  _Ub_Rmsf                            
1     000095f8  _UbcBus1_Rms                        
1     0000960a  _UbcBus1_Rmsf                       
1     000095fe  _UbcBus2_Rms                        
1     00009610  _UbcBus2_Rmsf                       
1     0000959e  _Ubc_Rms                            
1     000095a4  _Ubc_Rmsf                           
1     00009594  _Uc_Rms                             
1     0000959a  _Uc_Rmsf                            
1     000095fa  _UcaBus1_Rms                        
1     0000960c  _UcaBus1_Rmsf                       
1     00009600  _UcaBus2_Rms                        
1     00009612  _UcaBus2_Rmsf                       
1     000095a0  _Uca_Rms                            
1     000095a6  _Uca_Rmsf                           
1     0000973c  _UdRefRefOld_Outer                  
1     0000973a  _UdRefRef_Outer                     
1     0000976c  _UdRef_All                          
1     00009680  _Ud_FeedFwd                         
1     00009660  _Ud_Loop_Ki                         
1     0000965e  _Ud_Loop_Kp                         
1     00009664  _Ud_Loop_Out                        
1     00009768  _Ud_cal_step                        
1     000094c4  _UdcOffset_Outer                    
1     0000948b  _UdcStep_CountMax                   
1     0000964e  _Udc_Loop_Kd1                       
1     00009654  _Udc_Loop_Kd2                       
1     0000964c  _Udc_Loop_Ki1                       
1     00009652  _Udc_Loop_Ki2                       
1     0000964a  _Udc_Loop_Kp1                       
1     00009650  _Udc_Loop_Kp2                       
1     0000948a  _Udc_SetCount                       
1     0000979e  _Udc_SetSet                         
1     000097a0  _Udc_cal_step                       
1     00009670  _Udn_Loop_Ki                        
1     0000966e  _Udn_Loop_Kp                        
1     00009674  _Udn_Loop_Out                       
1     0000947f  _UdqStep_Count                      
1     00009480  _UdqStep_CountMax                   
0     00334270  _Udq_FastChar                       
1     0000965a  _Udq_Loop_Ki                        
1     00009658  _Udq_Loop_Kp                        
1     0000965c  _Udq_Loop_Lim                       
0     003341d5  _Udq_Ramp_Limit                     
1     0000967e  _Udqn_Loop_Lim                      
1     000094de  _UgalDire                           
1     000094e6  _UgalErr                            
1     000094e0  _UgalQuar                           
1     000094e2  _UgbeDire                           
1     000094e8  _UgbeErr                            
1     000094e4  _UgbeQuar                           
1     00009479  _UnloadCtrl_PC                      
1     0000976e  _UqRef_All                          
1     00009682  _Uq_FeedFwd                         
1     00009668  _Uq_Loop_Ki                         
1     00009666  _Uq_Loop_Kp                         
1     0000966c  _Uq_Loop_Out                        
1     00009678  _Uqn_Loop_Ki                        
1     00009676  _Uqn_Loop_Kp                        
1     0000967c  _Uqn_Loop_Out                       
1     00009574  _UsCtrl_Al                          
1     00009584  _UsCtrl_AlAll                       
1     0000957c  _UsCtrl_AlG                         
1     00009580  _UsCtrl_AlGn                        
1     00009578  _UsCtrl_Aln                         
1     00009576  _UsCtrl_Be                          
1     00009586  _UsCtrl_BeAll                       
1     0000957e  _UsCtrl_BeG                         
1     00009582  _UsCtrl_BeGn                        
1     0000957a  _UsCtrl_Ben                         
1     00009588  _UsCtrl_d                           
1     0000958c  _UsCtrl_dn                          
1     0000958a  _UsCtrl_q                           
1     0000958e  _UsCtrl_qn                          
1     00009772  _UsdRef                             
1     00009770  _UsdRefRef                          
1     0000975e  _UsdRefRefOld_CAN                   
1     00009760  _UsdRefRefOld_HMI                   
1     0000975c  _UsdRefRefOld_PC                    
1     0000974e  _UsdRefRef_Buf                      
1     00009758  _UsdRefRef_CAN                      
1     0000975a  _UsdRefRef_HMI                      
1     00009756  _UsdRefRef_PC                       
1     0000976a  _Usd_Lim                            
1     00009776  _UsqRef                             
1     00009774  _UsqRefRef                          
1     0000aa80  _VolSample                          
1     00009718  _VoltFrontfeed_Coeff                
1     000095ec  _Volt_Imbalance                     
0     00336604  _WAKEINT_ISR                        
0     00338f8b  _Write_NByte                        
0     00338fa5  _Write_NWord                        
0     00334dd2  _XINT1_FPGA_isr                     
0     003365dc  _XINT1_ISR                          
0     003365e6  _XINT2_ISR                          
0     003367c6  _XINT3_ISR                          
0     003367d0  _XINT4_ISR                          
0     003367da  _XINT5_ISR                          
0     003367e4  _XINT6_ISR                          
0     003367ee  _XINT7_ISR                          
1     00007070  _XIntruptRegs                       
1     00000b20  _XintfRegs                          
0     0033920e  _Zone7_Init                         
1     0000940f  _Zqwl_Temp_Error                    
0     00328000  __IQ1div                            
1     00000700  __STACK_END                         
abs   00000300  __STACK_SIZE                        
1     0000ab96  ___TI_cleanup_ptr                   
1     0000ab98  ___TI_dtors_ptr                     
1     0000ab94  ___TI_enable_exit_profile_output    
abs   ffffffff  ___TI_pprof_out_hndl                
abs   ffffffff  ___TI_prof_data_size                
abs   ffffffff  ___TI_prof_data_start               
abs   ffffffff  ___binit__                          
abs   ffffffff  ___c_args__                         
0     00339382  ___cinit__                          
0     00339382  ___etext__                          
abs   ffffffff  ___pinit__                          
0     00330000  ___text__                           
0     00339348  __args_main                         
1     0000abd0  __lock                              
0     0033936d  __nop                               
0     00339369  __register_lock                     
0     00339365  __register_unlock                   
1     00000400  __stack                             
0     00339381  __system_post_cinit                 
0     0033937f  __system_pre_init                   
1     0000abd2  __unlock                            
0     00339276  _abort                              
0     00334922  _ad_process                         
0     00339088  _c_int00                            
0     003392c5  _copy_in                            
0     00339025  _cos                                
0     00339025  _cosf                               
1     00009e04  _data_1005                          
1     00009e05  _data_1006                          
1     00009e06  _data_100C                          
1     00009e07  _data_100D                          
0     0033abb8  _decomp                             
1     00009e03  _device_name                        
0     00339278  _exit                               
1     0000a380  _fCycBuf                            
1     0000a400  _fIsrBuf                            
1     00009d42  _gHalCanBaudValue                   
1     00009d46  _gHalCanBusoffCount                 
1     00009d44  _gHalCanErrorCount                  
1     0000a876  _ghalTimer0Callback                 
0     0033801b  _hal_can_deinit                     
0     00338137  _hal_can_error_callback             
0     00337fbb  _hal_can_init                       
0     003380f9  _hal_can_rx_callback                
0     0033806f  _hal_can_rx_queue_de                
0     00338036  _hal_can_send                       
0     003380e4  _hal_can_tx_callback                
0     003380d6  _hal_can_tx_callback_set            
0     00338f2e  _hal_timer0_callback                
0     00338f26  _hal_timer0_callback_set            
0     00338ee8  _hal_timer_deinit                   
0     00338f08  _hal_timer_get_50ms_flag            
0     00338f12  _hal_timer_get_time                 
0     00338efe  _hal_timer_get_timercounter         
0     00338ece  _hal_timer_init                     
0     00338f1c  _hal_timer_set_50ms_flag            
1     0000a480  _iCycBuf                            
1     0000a500  _iIsrBuf                            
1     0000972e  _kW_cal_step                        
1     0000a580  _lCycBuf                            
1     0000a600  _lIsrBuf                            
0     00330010  _main                               
0     0033932b  _memcpy                             
0     00339376  _memset                             
0     00330c42  _mpr_1ms_AlarmCheck                 
0     00330e18  _mpr_1ms_protection                 
1     00009564  _mpr_freq                           
1     00009566  _mpr_freqf                          
1     00009528  _mpr_ia                             
1     00009532  _mpr_ial                            
1     0000952a  _mpr_ib                             
1     00009534  _mpr_ibe                            
1     0000952c  _mpr_ic                             
1     0000953e  _mpr_id                             
1     0000954e  _mpr_idf                            
1     0000954a  _mpr_idn                            
1     00009552  _mpr_idnf                           
1     00009542  _mpr_iod                            
1     00009546  _mpr_iodf                           
1     00009544  _mpr_ioq                            
1     00009548  _mpr_ioqf                           
1     00009530  _mpr_ipeak                          
1     00009540  _mpr_iq                             
1     00009550  _mpr_iqf                            
1     0000954c  _mpr_iqn                            
1     00009554  _mpr_iqnf                           
1     0000952e  _mpr_isum                           
0     003312cc  _mpr_pwm_protection                 
1     00009692  _mpr_temphigh                       
1     00009694  _mpr_templow                        
1     000094ee  _mpr_ua                             
1     000094f4  _mpr_uab                            
1     000094fa  _mpr_uabf                           
1     00009500  _mpr_ual                            
1     0000950c  _mpr_ual_n                          
1     00009508  _mpr_ual_p                          
1     000094f0  _mpr_ub                             
1     000094f6  _mpr_ubc                            
1     000094fc  _mpr_ubcf                           
1     00009502  _mpr_ube                            
1     0000950e  _mpr_ube_n                          
1     0000950a  _mpr_ube_p                          
1     000094f2  _mpr_uc                             
1     000094f8  _mpr_uca                            
1     000094fe  _mpr_ucaf                           
1     00009510  _mpr_ud                             
1     000094ea  _mpr_udc                            
1     000094ec  _mpr_udcf                           
1     00009514  _mpr_udf                            
1     0000951c  _mpr_udn                            
1     00009524  _mpr_udnf                           
1     00009518  _mpr_udp                            
1     00009520  _mpr_udpf                           
1     00009512  _mpr_uq                             
1     00009516  _mpr_uqf                            
1     0000951e  _mpr_uqn                            
1     00009526  _mpr_uqnf                           
1     0000951a  _mpr_uqp                            
1     00009522  _mpr_uqpf                           
1     00009556  _npr_ifa                            
1     0000955c  _npr_ifal                           
1     00009558  _npr_ifb                            
1     0000955e  _npr_ifbe                           
1     0000955a  _npr_ifc                            
1     00009560  _npr_ifd                            
1     00009562  _npr_ifq                            
1     0000968e  _npr_temphigh_reactor               
1     00009690  _npr_templow_reactor                
0     00330732  _pwm_init                           
0     00336816  _rsvd_ISR                           
1     0000a680  _sBalanceDataGroup                  
1     0000a6c0  _sEnergyDataGroup                   
0     0033a6fc  _sHoldReg_Group                     
0     0033a858  _sInputReg_Group                    
0     0033acdc  _sParaData_Group1                   
0     0033ac18  _sParaData_Group10                  
0     0033ad70  _sParaData_Group11                  
0     0033af94  _sParaData_Group12                  
0     0033a95c  _sParaData_Group13                  
0     0033a7c0  _sParaData_Group14                  
0     0033ac70  _sParaData_Group15                  
0     0033a8dc  _sParaData_Group16                  
0     0033af98  _sParaData_Group17                  
0     0033af9c  _sParaData_Group18                  
0     0033afa0  _sParaData_Group19                  
0     0033adf2  _sParaData_Group2                   
0     0033afa4  _sParaData_Group20                  
0     0033afa8  _sParaData_Group21                  
0     0033afac  _sParaData_Group22                  
0     0033adda  _sParaData_Group23                  
0     0033afb0  _sParaData_Group24                  
0     0033ac94  _sParaData_Group25                  
0     0033ae2a  _sParaData_Group3                   
0     0033ac44  _sParaData_Group4                   
0     0033acb8  _sParaData_Group5                   
0     0033aaa0  _sParaData_Group6                   
0     0033ae3a  _sParaData_Group7                   
0     0033abe8  _sParaData_Group8                   
0     0033acfc  _sParaData_Group9                   
0     0033aa38  _sParaData_Summary                  
1     0000a689  _sPowerDataGroup                    
1     0000a683  _sThdDataGroup                      
0     00338fbf  _sin                                
0     00338fbf  _sinf                               
0     0033915d  _spi_fifo_init                      
1     00009e94  _ulRealTimeSecond                   
1     00009e96  _ulRealTimeSecondSet                
1     000095ac  _vLine_avg                          
1     000095a8  _vLine_max                          
1     000095aa  _vLine_min                          
0     003370df  _variable_algorithm_init            
0     003370b3  _variable_init                      
abs   ffffffff  binit                               
0     00339382  cinit                               
0     0033fff6  code_start                          
0     00339382  etext                               
abs   ffffffff  pinit                               


GLOBAL SYMBOLS: SORTED BY Symbol Address 

page  address   name                                
----  -------   ----                                
0     00008000  _CANBMB4HardwareRecv                
0     00008000  _RamfuncsRunStart                   
0     000080bb  _CANBMB5HardwareRecv                
0     00008157  _InitFlash                          
0     00008172  _Dis_PWM                            
0     00320000  _RamfuncsLoadStart                  
0     00320177  _RamfuncsLoadEnd                    
0     00328000  __IQ1div                            
0     00330000  .text                               
0     00330000  _Init_XINTF1                        
0     00330000  ___text__                           
0     00330010  _main                               
0     003306f0  _INT28335_process                   
0     00330732  _pwm_init                           
0     0033073f  _GetFlowRate_Calc                   
0     00330797  _ConvInner_CANAComm                 
0     0033082d  _ConvInner_CANBComm                 
0     00330863  _RealTime20msFun                    
0     00330911  _FunFaultReact                      
0     00330931  _CoolFanCtrl                        
0     00330932  _FunResetAct                        
0     003309fe  _FunStatusUpdate                    
0     00330c42  _mpr_1ms_AlarmCheck                 
0     00330e18  _mpr_1ms_protection                 
0     003312cc  _mpr_pwm_protection                 
0     003312cd  _GetPQVIRms                         
0     00331690  _Comm_heartbeatToggle               
0     003316ae  _ComToDataLogCmd                    
0     00331704  _DataLog_Data_FlashRead             
0     003317c6  _DataLog_Index_FlashRead            
0     00331838  _DataLog_Send                       
0     003319b6  _DataLog_TrigCtrl                   
0     00331ad9  _DataLog_Cache                      
0     00331fd6  _DataLog_Save                       
0     00332160  _DataLog_VariebInit                 
0     00332268  _CAN_Pub_Low_CHx_ProtocalSend       
0     003322fe  _CAN_Pub_High_CHx_ProtocalSend      
0     003323e6  _CAN_Pub_CHx_ProtocalRecv           
0     003325b6  _CAN_Pub_CHx_NMTRecv_Slaver         
0     00332612  _CAN_Pub_CHx_SDO_ProtocalSend       
0     003327ed  _CAN_Pub_CHx_SDO_ProtocalRecv_Master
0     00332908  _CAN_Pub_CHx_SDO_ProtocalRecv_Slaver
0     00332b67  _MCS2MPR_ProtocalSend_Master        
0     00332d9c  _MCS2MPR_ProtocalSend_Slaver        
0     00332e48  _MCS2MPR_ProtocalSend_Status        
0     00332e8b  _MCS2MPR_ProtocalRecv_Master        
0     00333011  _MCS2MPR_ProtocalRecv_Slaver        
0     00333309  _EEPROM25LC1024SPITransferData      
0     00333314  _EEPROM25LC1024SPITransferByte      
0     00333327  _EEPROM25LC1024SPITransferWord      
0     0033333a  _EEPROM25LC1024SPIReadData          
0     00333341  _EEPROM25LC1024SPIWriteData         
0     00333349  _PageWriteErr                       
0     00333362  _NWordReadEEPROMFIFO                
0     003334af  _NWordWriteEEPROMFIFO               
0     00333605  _EEPROMPageErase                    
0     003336ff  _EEPROMSectorErase                  
0     003337f4  _EEPROMChipErase                    
0     003338d6  _EEPROMESIDRead                     
0     00333949  _FunU3s2sConv                       
0     00333973  _FunI3s2sConv                       
0     003339b6  _Fun2s3sConv                        
0     003339eb  _Fun2s2rConv                        
0     00333a2a  _Fun2r2sConv                        
0     00333a69  _SVPWM                              
0     00333bd4  _FunPIComCtrl                       
0     00333c38  _FunPIComCtrl_DLim                  
0     00333c9f  _Freq100LPFilter                    
0     00333d31  _Freq100_700BPFilter                
0     00333dc1  _Freq40_62d5BPFilter                
0     00333e68  _Phase_90Delay_Filter               
0     00333f14  _Source_Select                      
0     003341d5  _Udq_Ramp_Limit                     
0     00334270  _Udq_FastChar                       
0     003343f4  _ComToEventRead                     
0     00334477  _EventLog_Read                      
0     00334535  _EventLog_BufSave                   
0     0033469a  _EventLog_SectorSave                
0     0033471b  _EventLog_Pack                      
0     003347bd  _EventLog_VariebInit                
0     003348c2  _InitXintf                          
0     00334922  _ad_process                         
0     00334930  _Palarell_Extern_ADCScan            
0     00334931  _IO_Scan                            
0     00334cff  _CPLDSWVerRead                      
0     00334d28  _MotorFreq_FpgaScan                 
0     00334d48  _EPWM1_TZINT_isr                    
0     00334dd2  _XINT1_FPGA_isr                     
0     003350b4  _CANARecv_isr                       
0     0033512e  _CANBRecv_isr                       
0     0033517a  _Timer2INT_ISR                      
0     003351c5  _Modbus_Send_To_HMI                 
0     0033546a  _Modbus_Recv_For_HMI                
0     00335612  _Flash_WrStatus                     
0     0033566c  _Flash_Enter_4ByteAddr              
0     0033568f  _Flash_Read_JEDECID                 
0     003356de  _Flash_Read_UniqueID                
0     00335754  _Flash_SoftReset                    
0     0033578c  _Flash_ChipErase                    
0     003357e6  _Flash_Init                         
0     003358cc  _Flash_Read                         
0     0033590b  _Flash_Write                        
0     00335a28  _CANAMB0HardwareSend                
0     00335acb  _CANAMB4HardwareRecv                
0     00335b4f  _CANAMB5HardwareRecv                
0     00335bcc  _CANAMB6HardwareRecv                
0     00335c49  _CANAMB7HardwareRecv                
0     00335cc6  _CANAMB8HardwareRecv                
0     00335d43  _CANAMB9HardwareRecv                
0     00335dc0  _CANAMB10HardwareRecv               
0     00335e3d  _Lit_4CharBuf_Long32                
0     00335e6d  _Lit_2CharBuf_Int16                 
0     00335e7b  _Modbus_CRC_Check                   
0     00335eab  _MBM_Protocol                       
0     003360ec  _MBM_EnergyDataProcess              
0     00336102  _ModbusM_StatusUpdate               
0     00336150  _ModbusMaster_Init                  
0     00336185  _MBS_SendData                       
0     003361ee  _InitAdc                            
0     00336228  _Inner_ADCScan                      
0     0033631e  _Cal_ADReg2Vol                      
0     0033632e  _Cal_NTC_Volt2R                     
0     00336371  _Cal_NTC10K_R2Temp                  
0     00336412  _Cal_NTC5K_R2Temp                   
0     003364b3  _Cal_PT100_Volt2Temp                
0     0033650a  _INT13_ISR                          
0     00336514  _INT14_ISR                          
0     0033651e  _DATALOG_ISR                        
0     00336528  _RTOSINT_ISR                        
0     00336532  _EMUINT_ISR                         
0     0033653c  _NMI_ISR                            
0     00336546  _ILLEGAL_ISR                        
0     00336550  _USER1_ISR                          
0     0033655a  _USER2_ISR                          
0     00336564  _USER3_ISR                          
0     0033656e  _USER4_ISR                          
0     00336578  _USER5_ISR                          
0     00336582  _USER6_ISR                          
0     0033658c  _USER7_ISR                          
0     00336596  _USER8_ISR                          
0     003365a0  _USER9_ISR                          
0     003365aa  _USER10_ISR                         
0     003365b4  _USER11_ISR                         
0     003365be  _USER12_ISR                         
0     003365c8  _SEQ1INT_ISR                        
0     003365d2  _SEQ2INT_ISR                        
0     003365dc  _XINT1_ISR                          
0     003365e6  _XINT2_ISR                          
0     003365f0  _ADCINT_ISR                         
0     003365fa  _TINT0_ISR                          
0     00336604  _WAKEINT_ISR                        
0     0033660e  _EPWM1_TZINT_ISR                    
0     00336618  _EPWM2_TZINT_ISR                    
0     00336622  _EPWM3_TZINT_ISR                    
0     0033662c  _EPWM4_TZINT_ISR                    
0     00336636  _EPWM5_TZINT_ISR                    
0     00336640  _EPWM6_TZINT_ISR                    
0     0033664a  _EPWM1_INT_ISR                      
0     00336654  _EPWM2_INT_ISR                      
0     0033665e  _EPWM3_INT_ISR                      
0     00336668  _EPWM4_INT_ISR                      
0     00336672  _EPWM5_INT_ISR                      
0     0033667c  _EPWM6_INT_ISR                      
0     00336686  _ECAP1_INT_ISR                      
0     00336690  _ECAP2_INT_ISR                      
0     0033669a  _ECAP3_INT_ISR                      
0     003366a4  _ECAP4_INT_ISR                      
0     003366ae  _ECAP5_INT_ISR                      
0     003366b8  _ECAP6_INT_ISR                      
0     003366c2  _EQEP1_INT_ISR                      
0     003366cc  _EQEP2_INT_ISR                      
0     003366d6  _SPIRXINTA_ISR                      
0     003366e0  _SPITXINTA_ISR                      
0     003366ea  _MRINTB_ISR                         
0     003366f4  _MXINTB_ISR                         
0     003366fe  _MRINTA_ISR                         
0     00336708  _MXINTA_ISR                         
0     00336712  _DINTCH1_ISR                        
0     0033671c  _DINTCH2_ISR                        
0     00336726  _DINTCH3_ISR                        
0     00336730  _DINTCH4_ISR                        
0     0033673a  _DINTCH5_ISR                        
0     00336744  _DINTCH6_ISR                        
0     0033674e  _I2CINT1A_ISR                       
0     00336758  _I2CINT2A_ISR                       
0     00336762  _SCIRXINTC_ISR                      
0     0033676c  _SCITXINTC_ISR                      
0     00336776  _SCIRXINTA_ISR                      
0     00336780  _SCITXINTA_ISR                      
0     0033678a  _SCIRXINTB_ISR                      
0     00336794  _SCITXINTB_ISR                      
0     0033679e  _ECAN0INTA_ISR                      
0     003367a8  _ECAN1INTA_ISR                      
0     003367b2  _ECAN0INTB_ISR                      
0     003367bc  _ECAN1INTB_ISR                      
0     003367c6  _XINT3_ISR                          
0     003367d0  _XINT4_ISR                          
0     003367da  _XINT5_ISR                          
0     003367e4  _XINT6_ISR                          
0     003367ee  _XINT7_ISR                          
0     003367f8  _LVF_ISR                            
0     00336802  _LUF_ISR                            
0     0033680c  _PIE_RESERVED                       
0     00336816  _rsvd_ISR                           
0     00336820  _InitCanDrive                       
0     00336835  _DeinitCanDrive                     
0     00336848  _CanRecvDrive                       
0     0033685f  _CanSendDrive                       
0     00336ae1  _CanaCheckRxStatus                  
0     00336af7  _CanaClearAllFlags                  
0     00336b0c  _GenerateWordCrc16                  
0     00336b3a  _GenerateByteCrc16                  
0     00336b59  _Monitor_Rx_Protocol                
0     00336d31  _Monitor_Tx_Protocol                
0     00336dee  _Software_oscilloscopeInit          
0     00336e4a  _Software_oscilloscope              
0     003370b3  _variable_init                      
0     003370df  _variable_algorithm_init            
0     00337173  _Flash_Fault_ResetVarieble          
0     00337187  _FaultWord_Map                      
0     003371f3  _FaultMask_Map                      
0     00337271  _AlarmWord_Map                      
0     003372dd  _AlarmWord_Clear                    
0     00337351  _Monitor_SingleFrame_Access         
0     003375ee  _EEPROMAccess                       
0     00337878  _InitEPwm1                          
0     0033793b  _InitEPwm2                          
0     003379ec  _InitEPwm3                          
0     00337a9d  _InitEPwm                           
0     00337aa0  _En_PWM                             
0     00337aa5  _CANBVariableInit                   
0     00337ab4  _CANBMB0HardwareSend                
0     00337c37  _NODE_STATE_CH                      
0     00337c7d  _CRC_Check                          
0     00337cb2  _Func_InputReg                      
0     00337d3f  _Func_HoldReg                       
0     00337e9e  _CAN_FIFO_GetHighWaterMarkTx        
0     00337eab  _CAN_FIFO_Init                      
0     00337ee2  _CAN_FIFO_InitCallbacks             
0     00337eec  _CAN_FIFO_SetupTx                   
0     00337f13  _CAN_InitWrite                      
0     00337f25  _CAN_FIFO_Write                     
0     00337fbb  _hal_can_init                       
0     0033801b  _hal_can_deinit                     
0     00338036  _hal_can_send                       
0     0033806f  _hal_can_rx_queue_de                
0     003380d6  _hal_can_tx_callback_set            
0     003380e4  _hal_can_tx_callback                
0     003380f9  _hal_can_rx_callback                
0     00338137  _hal_can_error_callback             
0     00338155  _SCIMon_TxEn                        
0     0033815a  _SCIMon_TxBusy                      
0     0033815f  _Sci_Monitor_init                   
0     0033819a  _Sci_Monitor_RxData                 
0     003381e2  _Sci_Monitor_TxMulData              
0     00338236  _Sci_Monitor_TxData                 
0     003382d6  _InitECanbGpio                      
0     003382ec  _InitECanb                          
0     0033843d  _CMD06_Wr_en                        
0     00338449  _CMD_Wr_Status                      
0     00338474  _CMD_Rd_Status                      
0     00338497  _CMD66_ResetEn                      
0     003384a5  _CMD99_Reset                        
0     003384b3  _CMDB7_Enter_4ByteAddr              
0     003384c1  _CMD03_ReadData                     
0     003384e6  _CMD02_WriteData                    
0     0033850b  _CMDC7_ChipErase                    
0     00338519  _CMD9F_Read_JEDECID                 
0     0033852f  _CMD4B_Read_UniqueID                
0     0033854d  _CMD20_SectorErase                  
0     00338572  _ModbusRTU_Protocol                 
0     0033869a  _InitECanaGpio                      
0     003386ac  _InitECana                          
0     003387af  _GpioRegs_MUX_Config                
0     003387d0  _GpioRegs_DIR_Config                
0     003387e3  _GpioRegs_CTRL_Config               
0     003387ec  _GPIO_init                          
0     0033884c  _Flash_CS_En                        
0     00338851  _Flash_CS_Dis                       
0     00338856  _Flash_HardResetEn                  
0     00338857  _Flash_HardResetDis                 
0     00338858  _EEPROM_CS_En                       
0     0033885f  _EEPROM_CS_Dis                      
0     00338864  _RS485_Send_En                      
0     0033887c  _RS485_Send_Dis                     
0     00338894  _RS485_Send_En2                     
0     003388ac  _RS485_Send_Dis2                    
0     003388c4  _Sci_ModbusM_init                   
0     00338918  _Sci_ModbusM_SendArray              
0     00338936  _Sci_ModbusM_RxData                 
0     003389bf  _DisableDog                         
0     003389c7  _EnableDog                          
0     003389cf  _InitPll                            
0     00338a1e  _InitPeripheralClocks               
0     00338a6d  _InitSysCtrl                        
0     00338a76  _ServiceDog                         
0     00338a80  _CsmUnlock                          
0     00338ab1  _CANA_TxRx_ISR                      
0     00338b0a  _CANA_Error_ISR                     
0     00338b5a  _TIM0_ISR                           
0     00338b8d  _Sci_Modbus_init                    
0     00338be1  _Sci_Modbus_RxData                  
0     00338c29  _Sci_Modbus_SendData                
0     00338c36  _Sci_Modbus_SendArray               
0     00338c4e  _Monitor_Software_Read              
0     00338d0a  _CANB_NPR_Send_MCS                  
0     00338d0b  _CANB_NPR_Recv_MCS                  
0     00338d0c  _CANB_Sector_Send_Power             
0     00338d3d  _CANB_Sector_Recv_Power             
0     00338db9  _DMA_Init                           
0     00338e10  _StartDMA                           
0     00338e1c  _DMAAccessNum                       
0     00338e31  _DMA_ChannelReset                   
0     00338e46  FS$$DIV                             
0     00338ece  _hal_timer_init                     
0     00338ee8  _hal_timer_deinit                   
0     00338efe  _hal_timer_get_timercounter         
0     00338f08  _hal_timer_get_50ms_flag            
0     00338f12  _hal_timer_get_time                 
0     00338f1c  _hal_timer_set_50ms_flag            
0     00338f26  _hal_timer0_callback_set            
0     00338f2e  _hal_timer0_callback                
0     00338f47  _Read_NByte                         
0     00338f68  _Read_NWord                         
0     00338f8b  _Write_NByte                        
0     00338fa5  _Write_NWord                        
0     00338fbf  _sin                                
0     00338fbf  _sinf                               
0     00339025  _cos                                
0     00339025  _cosf                               
0     00339088  _c_int00                            
0     003390de  _InitCpuTimers                      
0     003390f5  _ConfigCpuTimer                     
0     0033912f  _InitSpiaGpio                       
0     0033915d  _spi_fifo_init                      
0     00339170  _InitSpi                            
0     0033917c  _TIM0_Init                          
0     003391b6  _TIM0_DeInit                        
0     003391c8  _MCBSPB_Init                        
0     003391fc  _MCBSP_DataBit8                     
0     00339203  _MCBSP_DataBit16                    
0     0033920e  _Zone7_Init                         
0     0033924c  L$$DIV                              
0     0033925b  L$$MOD                              
0     00339269  UL$$DIV                             
0     00339270  UL$$MOD                             
0     00339276  C$$EXIT                             
0     00339276  _abort                              
0     00339278  _exit                               
0     0033929f  _InitPieCtrl                        
0     003392be  _EnableInterrupts                   
0     003392c5  _copy_in                            
0     003392e9  I$$DIV                              
0     003392fa  I$$MOD                              
0     0033930b  _InitPieVectTable                   
0     0033932b  _memcpy                             
0     00339348  __args_main                         
0     0033935a  U$$DIV                              
0     0033935f  U$$MOD                              
0     00339365  __register_unlock                   
0     00339369  __register_lock                     
0     0033936d  __nop                               
0     00339376  _memset                             
0     0033937d  _CANA_NPR_Send_MPR                  
0     0033937e  _CANA_NPR_Recv_MPR                  
0     0033937f  __system_pre_init                   
0     00339381  __system_post_cinit                 
0     00339382  ___cinit__                          
0     00339382  ___etext__                          
0     00339382  cinit                               
0     00339382  etext                               
0     0033a4fc  _CrcTab                             
0     0033a5fc  _PieVectTableInit                   
0     0033a6fc  _sHoldReg_Group                     
0     0033a7c0  _sParaData_Group14                  
0     0033a858  _sInputReg_Group                    
0     0033a8dc  _sParaData_Group16                  
0     0033a95c  _sParaData_Group13                  
0     0033a9cc  _MCS2MPR_CANSDOSummary              
0     0033aa38  _sParaData_Summary                  
0     0033aaa0  _sParaData_Group6                   
0     0033aae0  _MPR2NPR_RPDOObj                    
0     0033ab1c  _MPR2NPR_TPDOObj                    
0     0033ab58  _MCS2MPR_RPDOObj                    
0     0033ab88  _MCS2MPR_TPDOObj                    
0     0033abb8  _decomp                             
0     0033abe8  _sParaData_Group8                   
0     0033ac18  _sParaData_Group10                  
0     0033ac44  _sParaData_Group4                   
0     0033ac70  _sParaData_Group15                  
0     0033ac94  _sParaData_Group25                  
0     0033acb8  _sParaData_Group5                   
0     0033acdc  _sParaData_Group1                   
0     0033acfc  _sParaData_Group9                   
0     0033ad70  _sParaData_Group11                  
0     0033adda  _sParaData_Group23                  
0     0033adf2  _sParaData_Group2                   
0     0033ae06  _MPR2NPR_SDOObject_0x4012           
0     0033ae18  _MPR2NPR_SDOObject_0x4013           
0     0033ae2a  _sParaData_Group3                   
0     0033ae3a  _sParaData_Group7                   
0     0033ae4a  _MCS2MPR_SDOObject_0x1000           
0     0033ae56  _MCS2MPR_SDOObject_0x1005           
0     0033ae62  _MCS2MPR_SDOObject_0x1006           
0     0033ae6e  _MCS2MPR_SDOObject_0x100C           
0     0033ae7a  _MCS2MPR_SDOObject_0x100D           
0     0033ae86  _MCS2MPR_SDOObject_0x1018           
0     0033ae92  _MCS2MPR_SDOObject_0x2000           
0     0033ae9e  _MCS2MPR_SDOObject_0x2001           
0     0033aeaa  _MCS2MPR_SDOObject_0x2002           
0     0033aeb6  _MCS2MPR_SDOObject_0x2003           
0     0033aec2  _MCS2MPR_SDOObject_0x2010           
0     0033aece  _MCS2MPR_SDOObject_0x2011           
0     0033aeda  _MCS2MPR_SDOObject_0x2012           
0     0033aee6  _MCS2MPR_SDOObject_0x2013           
0     0033aef2  _MCS2MPR_SDOObject_0x2014           
0     0033aefe  _MCS2MPR_SDOObject_0x2015           
0     0033af0a  _MCS2MPR_SDOObject_0x2016           
0     0033af16  _MCS2MPR_SDOObject_0x2017           
0     0033af22  _MCS2MPR_SDOObject_0x2018           
0     0033af2e  _MCS2MPR_SDOObject_0x2019           
0     0033af3a  _MCS2MPR_SDOObject_0x201A           
0     0033af46  _MCS2MPR_SDOObject_0x201B           
0     0033af52  _MCS2MPR_SDOObject_0x201C           
0     0033af5e  _MCS2MPR_SDOObject_0x201D           
0     0033af6a  _MCS2MPR_SDOObject_0x201E           
0     0033af76  _MCS2MPR_SDOObject_0x201F           
0     0033af82  _MPR2NPR_CANSDOSummary              
0     0033af94  _sParaData_Group12                  
0     0033af98  _sParaData_Group17                  
0     0033af9c  _sParaData_Group18                  
0     0033afa0  _sParaData_Group19                  
0     0033afa4  _sParaData_Group20                  
0     0033afa8  _sParaData_Group21                  
0     0033afac  _sParaData_Group22                  
0     0033afb0  _sParaData_Group24                  
0     0033fff6  code_start                          
0     00380080  _ADC_cal                            
0     003fe000  _IQsinTable                         
0     003fe100  _IQcosTable                         
0     003fe400  _IQsinTableEnd                      
0     003fe502  _IQcosTableEnd                      
0     003fe502  _IQdivRoundSatTable                 
0     003fe510  _IQdivTable                         
0     003fe712  _IQdivTableEnd                      
0     003fe712  _IQisqrtRoundSatTable               
0     003fe712  _IQsqrtRoundSatTable                
0     003fe722  _IQisqrtTable                       
0     003fe722  _IQsqrtTable                        
0     003fe824  _IQatan2HalfPITable                 
0     003fe824  _IQisqrtTableEnd                    
0     003fe824  _IQsqrtTableEnd                     
0     003fe862  _IQatan2Table                       
0     003fe9e8  _IQ30mpyRndSatTable                 
0     003fe9e8  _IQatan2TableEnd                    
0     003fe9e8  _IQmpyRndSatTable                   
0     003fe9f4  _IQ29mpyRndSatTable                 
0     003fea00  _IQ28mpyRndSatTable                 
0     003fea0c  _IQ27mpyRndSatTable                 
0     003fea18  _IQ26mpyRndSatTable                 
0     003fea24  _IQ25mpyRndSatTable                 
0     003fea30  _IQ24mpyRndSatTable                 
0     003fea3c  _IQ23mpyRndSatTable                 
0     003fea48  _IQ22mpyRndSatTable                 
0     003fea54  _IQ21mpyRndSatTable                 
0     003fea60  _IQ20mpyRndSatTable                 
0     003fea6c  _IQ19mpyRndSatTable                 
0     003fea78  _IQ18mpyRndSatTable                 
0     003fea84  _IQ17mpyRndSatTable                 
0     003fea90  _IQ16mpyRndSatTable                 
0     003fea9c  _IQ15mpyRndSatTable                 
0     003feaa8  _IQ14mpyRndSatTable                 
0     003feab4  _IQ13mpyRndSatTable                 
0     003feac0  _IQ12mpyRndSatTable                 
0     003feacc  _IQ11mpyRndSatTable                 
0     003fead8  _IQ10mpyRndSatTable                 
0     003feae4  _IQ9mpyRndSatTable                  
0     003feaf0  _IQ8mpyRndSatTable                  
0     003feafc  _IQ7mpyRndSatTable                  
0     003feb08  _IQ6mpyRndSatTable                  
0     003feb14  _IQ5mpyRndSatTable                  
0     003feb20  _IQ4mpyRndSatTable                  
0     003feb2c  _IQ3mpyRndSatTable                  
0     003feb38  _IQ2mpyRndSatTable                  
0     003feb44  _IQ1mpyRndSatTable                  
0     003feb50  _IQmpyRndSatTableEnd                
1     00000400  __stack                             
1     00000700  __STACK_END                         
1     00000880  _DevEmuRegs                         
1     00000a80  _FlashRegs                          
1     00000ae0  _CsmRegs                            
1     00000b00  _AdcMirror                          
1     00000b20  _XintfRegs                          
1     00000c00  _CpuTimer0Regs                      
1     00000c08  _CpuTimer1Regs                      
1     00000c10  _CpuTimer2Regs                      
1     00000ce0  _PieCtrlRegs                        
1     00000d00  _PieVectTable                       
1     00001000  _DmaRegs                            
1     00005000  _McbspaRegs                         
1     00005040  _McbspbRegs                         
1     00006000  _ECanaRegs                          
1     00006040  _ECanaLAMRegs                       
1     00006080  _ECanaMOTSRegs                      
1     000060c0  _ECanaMOTORegs                      
1     00006100  _ECanaMboxes                        
1     00006200  _ECanbRegs                          
1     00006240  _ECanbLAMRegs                       
1     00006280  _ECanbMOTSRegs                      
1     000062c0  _ECanbMOTORegs                      
1     00006300  _ECanbMboxes                        
1     00006800  _EPwm1Regs                          
1     00006840  _EPwm2Regs                          
1     00006880  _EPwm3Regs                          
1     000068c0  _EPwm4Regs                          
1     00006900  _EPwm5Regs                          
1     00006940  _EPwm6Regs                          
1     00006a00  _ECap1Regs                          
1     00006a20  _ECap2Regs                          
1     00006a40  _ECap3Regs                          
1     00006a60  _ECap4Regs                          
1     00006a80  _ECap5Regs                          
1     00006aa0  _ECap6Regs                          
1     00006b00  _EQep1Regs                          
1     00006b40  _EQep2Regs                          
1     00006f80  _GpioCtrlRegs                       
1     00006fc0  _GpioDataRegs                       
1     00006fe0  _GpioIntRegs                        
1     00007010  _SysCtrlRegs                        
1     00007040  _SpiaRegs                           
1     00007050  _SciaRegs                           
1     00007070  _XIntruptRegs                       
1     00007100  _AdcRegs                            
1     00007750  _ScibRegs                           
1     00007770  _ScicRegs                           
1     00007900  _I2caRegs                           
1     00009000  _SCIBSendBuffer                     
1     00009400  _FpgaVerCode                        
1     00009401  _DeviceNum                          
1     00009402  _ParaSaveFlag                       
1     00009403  _ParaSaveFlagOld                    
1     00009404  _FanIgbt_HMI                        
1     00009405  _MasToSlaWord                       
1     00009406  _Mas1ToSlaWord                      
1     00009407  _Mas2ToSlaWord                      
1     00009408  _SlaToMasWord                       
1     00009409  _SlaToMas1Word                      
1     0000940a  _SlaToMas2Word                      
1     0000940b  _FpgaSofaFault                      
1     0000940c  _FltCnt_OverTemp_Transformer        
1     0000940d  _FltCnt_OverTemp_Inverter           
1     0000940e  _FltCnt_OverTemp_Rectifier          
1     0000940f  _Zqwl_Temp_Error                    
1     00009410  _Can_Temp_Flag                      
1     00009411  _Test_Time1ms                       
1     00009412  _IOInputFpga1                       
1     00009413  _IOInputFpga2                       
1     00009414  _IOInputFpga3                       
1     00009415  _IOInput1                           
1     00009416  _IOInput2                           
1     00009417  _IOInputEn                          
1     00009418  _IOInputLogic                       
1     00009419  _IOInputDisValue                    
1     0000941a  _IOOutFpga1                         
1     0000941b  _IOOutFpga1Old                      
1     0000941c  _IOOutput1                          
1     0000941d  _IOOutput1Old                       
1     0000941e  _IOOutCtrl1Word                     
1     0000941f  _FPGACD4067_SelFlag                 
1     00009420  _PWMTestA                           
1     00009421  _PWMTestB                           
1     00009422  _PWMTestC                           
1     00009423  _AlarmWord1                         
1     00009424  _AlarmWord2                         
1     00009425  _AlarmWord3                         
1     00009426  _AlarmWord4                         
1     00009427  _AlarmWord5                         
1     00009428  _AlarmWord6                         
1     00009429  _AlarmWord7                         
1     0000942a  _AlarmWord8                         
1     0000942b  _AlmCnt_OpearatError                
1     0000942c  _MPR_FaultCode                      
1     0000942d  _MPR_AlarmCode                      
1     0000942e  _ECANA_FaultCode                    
1     0000942f  _ECANA_FaultMask                    
1     00009430  _NPR_ConvHWAMWord                   
1     00009431  _FltCnt_OverTime_Unload             
1     00009432  _FltCnt_OverTime_PreChar            
1     00009433  _FltCnt_OverDvalue_Tempr            
1     00009434  _FltCnt_OverTemp_IGBT               
1     00009435  _FltCnt_OverTime_MasShift           
1     00009436  _FltCnt_OverVolt_Work1              
1     00009437  _FltCnt_UnderVolt_Work1             
1     00009438  _FltCnt_OverVolt_Work2              
1     00009439  _FltCnt_UnderVolt_Work2             
1     0000943a  _FltCnt_UnderVolt_Udc               
1     0000943b  _FltCnt_OverVolt_Udc                
1     0000943c  _FltCnt_OverTime_ACB                
1     0000943d  _FltCnt_OverTime_FCC                
1     0000943e  _FltCnt_OverTime_FanIgbt            
1     0000943f  _FltCnt_OverTime_FanCap             
1     00009440  _FltCnt_OverCurr_Ipeak              
1     00009441  _FltCnt_OverCurr_Irms               
1     00009442  _FltCnt_OverCurr_CapIrms            
1     00009443  _FltCnt_OverDvalue_Freq             
1     00009444  _FltCnt_UnderFreq_Grid              
1     00009445  _FltCnt_OverCurr_Isum               
1     00009446  _FltCnt_VolgImba_Grid               
1     00009447  _FltCnt_OverTime_LockPWM            
1     00009448  _FltCnt_ToggHigh_CAN                
1     00009449  _FltCnt_ToggLow_CAN                 
1     0000944a  _FltCnt_OverTime_Cap40uF            
1     0000944b  _FltCnt_OverTime_Cap20uF            
1     0000944c  _FltCnt_OverTime_NprRun             
1     0000944d  _FltCnt_OverImba_Volt               
1     0000944e  _FltCnt_OverImba_Curr               
1     0000944f  _FltCnt_OverTime_ACB1Out            
1     00009450  _FltCnt_OverTime_ACB2Out            
1     00009451  _FltCnt_OverTime_ACB3Out            
1     00009452  _FltCnt_OverLow_FlowRate            
1     00009453  _FltThr_OverTimt_UnloadIn           
1     00009454  _MPR_HWFMWord0                      
1     00009455  _MPR_HWFMWord1                      
1     00009456  _MPR_HWFMWord2                      
1     00009457  _MPR_HWFMWord3                      
1     00009458  _MPR_HWFMWord4                      
1     00009459  _MPR_HWFMWord5                      
1     0000945a  _MPR_HWFMWord6                      
1     0000945b  _MPR_HWFMWord7                      
1     0000945c  _FaultWord1                         
1     0000945d  _FaultWord2                         
1     0000945e  _FaultWord3                         
1     0000945f  _FaultWord4                         
1     00009460  _FaultWord5                         
1     00009461  _FaultWord6                         
1     00009462  _FaultWord7                         
1     00009463  _FaultWord8                         
1     00009464  _Curr_Har1_En                       
1     00009465  _Curr_Har1_Order                    
1     00009466  _Curr_Har2_En                       
1     00009467  _Curr_Har2_Order                    
1     00009468  _DspToFpgaWord                      
1     00009469  _FpgaToDspWord                      
1     0000946a  _Start_WaitTime                     
1     0000946b  _Start_WaitTimeSet                  
1     0000946c  _Flag_DspRdFpga                     
1     0000946d  _Flag_DspWrFpga                     
1     0000946e  _PowerCtrlWord                      
1     0000946f  _PowerStatusWord                    
1     00009470  _MainCtrlWord                       
1     00009471  _MainCtrlWord_CAN                   
1     00009472  _MainCtrlWord_PC                    
1     00009473  _MainCtrlWord_HMI                   
1     00009474  _MainStusWord                       
1     00009475  _MainStusWordOld                    
1     00009476  _CtrlModeWord                       
1     00009477  _BreakCtrlWord                      
1     00009478  _BreakStatusWord                    
1     00009479  _UnloadCtrl_PC                      
1     0000947a  _FPGACtrlWord                       
1     0000947b  _Manu_Oper_Force                    
1     0000947c  _Id_Priority                        
1     0000947d  _IdqStep_CountMax                   
1     0000947e  _IdqStep_Count                      
1     0000947f  _UdqStep_Count                      
1     00009480  _UdqStep_CountMax                   
1     00009481  _FastChar_PhaseSel                  
1     00009482  _FastChar_RiseTime                  
1     00009483  _FastChar_HoleTime                  
1     00009484  _FastChar_DownTime                  
1     00009485  _FastChar_RunStatus                 
1     00009486  _FastChar_CtrlWord                  
1     00009487  _FastChar_StopWord                  
1     00009488  _FastChar_TimeCount                 
1     00009489  _FastChar_1msCount                  
1     0000948a  _Udc_SetCount                       
1     0000948b  _UdcStep_CountMax                   
1     0000948c  _SysCnt_1msBase                     
1     0000948d  _SysCnt_1ms                         
1     0000948e  _SysCnt_1msOld                      
1     0000948f  _SysCnt_1sBase                      
1     00009490  _SysCnt_1s                          
1     00009491  _SysCnt_1sOld                       
1     00009492  _SysCnt_10msRmsCalc                 
1     00009493  _CtrlThr_LockPwm_Time               
1     00009494  _Status_MPRRun                      
1     00009495  _CtrlCnt_StartCheck                 
1     00009496  _CtrlCnt_IgbtFanOn                  
1     00009497  _CtrlCnt_LedTogg                    
1     00009498  _CtrlCnt_RstDelay                   
1     00009499  _CtrlCnt_ManUnload                  
1     0000949a  _CtrlCnt_IORunRefFeed               
1     0000949b  _CtrlCnt_IORstRefFeed               
1     0000949c  _CtrlCnt_IOFltDelay                 
1     0000949d  _CtrlCnt_ReactorFanOn               
1     0000949e  _CtrlCnt_SofaStart                  
1     0000949f  _CtrlCnt_StartNpr                   
1     000094a0  _CtrlCnt_FltDlyUV1                  
1     000094a1  _CtrlCnt_FltDlyUV2                  
1     000094a2  _CtrlCnt_AddBusOk                   
1     000094a3  _Flag_LockPWM                       
1     000094a4  _Flag_IORunRef                      
1     000094a5  _Flag_IORstRef                      
1     000094a6  _Flag_IORstRefOld                   
1     000094a7  _Flag_FanCapOn                      
1     000094a8  _Flag_FanIgbtOn                     
1     000094a9  _Flag_EEPROMCheck                   
1     000094aa  _Flag_RstCmdOld                     
1     000094ab  _Flag_PwmModuMode                   
1     000094ac  _Flag_PowerOn                       
1     000094ad  _Flag_WorkMode                      
1     000094ae  _Flag_WorkModeOld                   
1     000094af  _CAN_SectorRst_Flag                 
1     000094b0  _CAN_SectorRst_FlagOld              
1     000094b1  _Flag_VoltRef                       
1     000094b2  _FlagOld_VoltRef                    
1     000094b3  _Flag_FreqRef                       
1     000094b4  _FlagOld_FreqRef                    
1     000094b5  _Flag_PowerOnRef                    
1     000094b6  _Operation_ineffective              
1     000094b7  _Rst_Flag_HMI                       
1     000094b8  _Rst_Flag_HMIOld                    
1     000094ba  _FpgaIdRef                          
1     000094bc  _FpgaIqRef                          
1     000094be  _MotorVolt_Imbalance                
1     000094c0  _MotorCurr_Imbalance                
1     000094c2  _FlowRate                           
1     000094c4  _UdcOffset_Outer                    
1     000094c6  _FltThr_OverTemp_Transformer        
1     000094c8  _FltThr_OverTemp_Inverter           
1     000094ca  _FltThr_OverTemp_Rectifier          
1     000094cc  _Rectifier_reactor_temp             
1     000094ce  _Inverter_reactor_temp              
1     000094d0  _Transformer_temp                   
1     000094d2  _CtrlThr_ReactorOn_TempH            
1     000094d4  _CtrlThr_ReactorOff_TempH           
1     000094d6  _SOGI_FreqMea                       
1     000094d8  _SOGI_FreqMeaf                      
1     000094da  _SOGI_Freqff                        
1     000094dc  _SOGI_wFreqErr                      
1     000094de  _UgalDire                           
1     000094e0  _UgalQuar                           
1     000094e2  _UgbeDire                           
1     000094e4  _UgbeQuar                           
1     000094e6  _UgalErr                            
1     000094e8  _UgbeErr                            
1     000094ea  _mpr_udc                            
1     000094ec  _mpr_udcf                           
1     000094ee  _mpr_ua                             
1     000094f0  _mpr_ub                             
1     000094f2  _mpr_uc                             
1     000094f4  _mpr_uab                            
1     000094f6  _mpr_ubc                            
1     000094f8  _mpr_uca                            
1     000094fa  _mpr_uabf                           
1     000094fc  _mpr_ubcf                           
1     000094fe  _mpr_ucaf                           
1     00009500  _mpr_ual                            
1     00009502  _mpr_ube                            
1     00009504  _UGal_D90                           
1     00009506  _UGbe_D90                           
1     00009508  _mpr_ual_p                          
1     0000950a  _mpr_ube_p                          
1     0000950c  _mpr_ual_n                          
1     0000950e  _mpr_ube_n                          
1     00009510  _mpr_ud                             
1     00009512  _mpr_uq                             
1     00009514  _mpr_udf                            
1     00009516  _mpr_uqf                            
1     00009518  _mpr_udp                            
1     0000951a  _mpr_uqp                            
1     0000951c  _mpr_udn                            
1     0000951e  _mpr_uqn                            
1     00009520  _mpr_udpf                           
1     00009522  _mpr_uqpf                           
1     00009524  _mpr_udnf                           
1     00009526  _mpr_uqnf                           
1     00009528  _mpr_ia                             
1     0000952a  _mpr_ib                             
1     0000952c  _mpr_ic                             
1     0000952e  _mpr_isum                           
1     00009530  _mpr_ipeak                          
1     00009532  _mpr_ial                            
1     00009534  _mpr_ibe                            
1     00009536  _Igal_D90                           
1     00009538  _Igbe_D90                           
1     0000953a  _Igal_N                             
1     0000953c  _Igbe_N                             
1     0000953e  _mpr_id                             
1     00009540  _mpr_iq                             
1     00009542  _mpr_iod                            
1     00009544  _mpr_ioq                            
1     00009546  _mpr_iodf                           
1     00009548  _mpr_ioqf                           
1     0000954a  _mpr_idn                            
1     0000954c  _mpr_iqn                            
1     0000954e  _mpr_idf                            
1     00009550  _mpr_iqf                            
1     00009552  _mpr_idnf                           
1     00009554  _mpr_iqnf                           
1     00009556  _npr_ifa                            
1     00009558  _npr_ifb                            
1     0000955a  _npr_ifc                            
1     0000955c  _npr_ifal                           
1     0000955e  _npr_ifbe                           
1     00009560  _npr_ifd                            
1     00009562  _npr_ifq                            
1     00009564  _mpr_freq                           
1     00009566  _mpr_freqf                          
1     00009568  _GridVolt_Angle                     
1     0000956a  _GridCurrent_Angle                  
1     0000956c  _GridUconvert_Angle                 
1     0000956e  _MotorVolt_Angle                    
1     00009570  _MotorVolt_Freq                     
1     00009572  _MotorVolt_AngleComp                
1     00009574  _UsCtrl_Al                          
1     00009576  _UsCtrl_Be                          
1     00009578  _UsCtrl_Aln                         
1     0000957a  _UsCtrl_Ben                         
1     0000957c  _UsCtrl_AlG                         
1     0000957e  _UsCtrl_BeG                         
1     00009580  _UsCtrl_AlGn                        
1     00009582  _UsCtrl_BeGn                        
1     00009584  _UsCtrl_AlAll                       
1     00009586  _UsCtrl_BeAll                       
1     00009588  _UsCtrl_d                           
1     0000958a  _UsCtrl_q                           
1     0000958c  _UsCtrl_dn                          
1     0000958e  _UsCtrl_qn                          
1     00009590  _Ua_Rms                             
1     00009592  _Ub_Rms                             
1     00009594  _Uc_Rms                             
1     00009596  _Ua_Rmsf                            
1     00009598  _Ub_Rmsf                            
1     0000959a  _Uc_Rmsf                            
1     0000959c  _Uab_Rms                            
1     0000959e  _Ubc_Rms                            
1     000095a0  _Uca_Rms                            
1     000095a2  _Uab_Rmsf                           
1     000095a4  _Ubc_Rmsf                           
1     000095a6  _Uca_Rmsf                           
1     000095a8  _vLine_max                          
1     000095aa  _vLine_min                          
1     000095ac  _vLine_avg                          
1     000095ae  _UalbeP_Rms                         
1     000095b0  _UalbeN_Rms                         
1     000095b2  _UalbeP_Rmsf                        
1     000095b4  _UalbeN_Rmsf                        
1     000095b6  _Ia_Rms                             
1     000095b8  _Ib_Rms                             
1     000095ba  _Ic_Rms                             
1     000095bc  _Ia_Rmsf                            
1     000095be  _Ib_Rmsf                            
1     000095c0  _Ic_Rmsf                            
1     000095c2  _Iphase_min                         
1     000095c4  _Iphase_max                         
1     000095c6  _Iphase_avg                         
1     000095c8  _Iaf_Rms                            
1     000095ca  _Ibf_Rms                            
1     000095cc  _Icf_Rms                            
1     000095ce  _Iaf_Rmsf                           
1     000095d0  _Ibf_Rmsf                           
1     000095d2  _Icf_Rmsf                           
1     000095d4  _Ifphase_min                        
1     000095d6  _Ifphase_max                        
1     000095d8  _NPR_Power                          
1     000095da  _NPR_ReactPower                     
1     000095dc  _Power_Factor                       
1     000095de  _GridVolt_Imbalance                 
1     000095e0  _MPR_Ps                             
1     000095e2  _MPR_Qs                             
1     000095e4  _MPR_Ss                             
1     000095e6  _MPR_PsACK                          
1     000095e8  _MPR_QsACK                          
1     000095ea  _MPR_SsACK                          
1     000095ec  _Volt_Imbalance                     
1     000095ee  _Curr_Imbalance                     
1     000095f0  _Ioa_Rms                            
1     000095f2  _Iob_Rms                            
1     000095f4  _Ioc_Rms                            
1     000095f6  _UabBus1_Rms                        
1     000095f8  _UbcBus1_Rms                        
1     000095fa  _UcaBus1_Rms                        
1     000095fc  _UabBus2_Rms                        
1     000095fe  _UbcBus2_Rms                        
1     00009600  _UcaBus2_Rms                        
1     00009602  _Ioa_Rmsf                           
1     00009604  _Iob_Rmsf                           
1     00009606  _Ioc_Rmsf                           
1     00009608  _UabBus1_Rmsf                       
1     0000960a  _UbcBus1_Rmsf                       
1     0000960c  _UcaBus1_Rmsf                       
1     0000960e  _UabBus2_Rmsf                       
1     00009610  _UbcBus2_Rmsf                       
1     00009612  _UcaBus2_Rmsf                       
1     00009614  _Idq_Loop_Kp                        
1     00009616  _Idq_Loop_Ki                        
1     00009618  _Id_Loop_Lim                        
1     0000961a  _Iq_Loop_Lim                        
1     0000961c  _Idq_Loop_Lim                       
1     0000961e  _Id_Loop_Kp                         
1     00009620  _Id_Loop_Ki                         
1     00009622  _Id_Loop_Kd                         
1     00009624  _Errtotal_Id                        
1     00009626  _Id_Loop_Out                        
1     00009628  _Iq_Loop_Kp                         
1     0000962a  _Iq_Loop_Ki                         
1     0000962c  _Iq_Loop_Kd                         
1     0000962e  _Errtotal_Iq                        
1     00009630  _Iq_Loop_Out                        
1     00009632  _Idn_Loop_Kp                        
1     00009634  _Idn_Loop_Ki                        
1     00009636  _Idn_Loop_Kd                        
1     00009638  _Errtotal_Idn                       
1     0000963a  _Idn_Loop_Out                       
1     0000963c  _Idn_Loop_Lim                       
1     0000963e  _Iqn_Loop_Kp                        
1     00009640  _Iqn_Loop_Ki                        
1     00009642  _Iqn_Loop_Kd                        
1     00009644  _Errtotal_Iqn                       
1     00009646  _Iqn_Loop_Lim                       
1     00009648  _Iqn_Loop_Out                       
1     0000964a  _Udc_Loop_Kp1                       
1     0000964c  _Udc_Loop_Ki1                       
1     0000964e  _Udc_Loop_Kd1                       
1     00009650  _Udc_Loop_Kp2                       
1     00009652  _Udc_Loop_Ki2                       
1     00009654  _Udc_Loop_Kd2                       
1     00009656  _Errtotal_Udc                       
1     00009658  _Udq_Loop_Kp                        
1     0000965a  _Udq_Loop_Ki                        
1     0000965c  _Udq_Loop_Lim                       
1     0000965e  _Ud_Loop_Kp                         
1     00009660  _Ud_Loop_Ki                         
1     00009662  _Errtotal_Ud                        
1     00009664  _Ud_Loop_Out                        
1     00009666  _Uq_Loop_Kp                         
1     00009668  _Uq_Loop_Ki                         
1     0000966a  _Errtotal_Uq                        
1     0000966c  _Uq_Loop_Out                        
1     0000966e  _Udn_Loop_Kp                        
1     00009670  _Udn_Loop_Ki                        
1     00009672  _Errtotal_Udn                       
1     00009674  _Udn_Loop_Out                       
1     00009676  _Uqn_Loop_Kp                        
1     00009678  _Uqn_Loop_Ki                        
1     0000967a  _Errtotal_Uqn                       
1     0000967c  _Uqn_Loop_Out                       
1     0000967e  _Udqn_Loop_Lim                      
1     00009680  _Ud_FeedFwd                         
1     00009682  _Uq_FeedFwd                         
1     00009684  _PLL_Kp                             
1     00009686  _PLL_Ki                             
1     00009688  _PLL_Kd                             
1     0000968a  _PLL_Lim                            
1     0000968c  _PLL_ErrTotal                       
1     0000968e  _npr_temphigh_reactor               
1     00009690  _npr_templow_reactor                
1     00009692  _mpr_temphigh                       
1     00009694  _mpr_templow                        
1     00009696  _Motor_Temphigh                     
1     00009698  _Motor_Templow                      
1     0000969a  _Filter_Cap_Temphigh                
1     0000969c  _Filter_Cap_TempLow                 
1     0000969e  _AlmThr_OverVolt_Work1              
1     000096a0  _AlmThr_UnderVolt_Work1             
1     000096a2  _AlmThr_OverVolt_Work2              
1     000096a4  _AlmThr_UnderVolt_Work2             
1     000096a6  _AlmThr_OverDvalue_Freq             
1     000096a8  _AlmThr_OverTemp_IGBT               
1     000096aa  _AlmThr_OverVolt_Udc                
1     000096ac  _AlmThr_UnderVolt_Udc               
1     000096ae  _AlmThr_OverCurr_Irms               
1     000096b0  _AlmThr_OverImba_Volt               
1     000096b2  _AlmThr_OverImba_Curr               
1     000096b4  _FltThr_OverVolt_Work               
1     000096b6  _FltThr_UnderVolt_Work              
1     000096b8  _FltThr_OverVolt_Work1              
1     000096ba  _FltThr_UnderVolt_Work1             
1     000096bc  _FltThr_OverVolt_Work2              
1     000096be  _FltThr_UnderVolt_Work2             
1     000096c0  _FltThr_OverDvalue_Freq             
1     000096c2  _FltThr_UnderFreq_Grid              
1     000096c4  _FltThr_OverVolt_Udc                
1     000096c6  _FltThr_OverVoltEst_Udc             
1     000096c8  _FltThr_UnderVolt_Udc               
1     000096ca  _FltThr_OverTime_PreChar            
1     000096cc  _FltThr_OverCurr_Ipeak              
1     000096ce  _FltThr_OverCurrEst_Ipeak           
1     000096d0  _FltThr_OverCurr_Irms               
1     000096d2  _FltThr_OverCurr_Isum               
1     000096d4  _FltThr_OverCurr_CapIrms            
1     000096d6  _FltThr_OverTemp_IGBT               
1     000096d8  _FltThr_OverImba_Volt               
1     000096da  _FltThr_OverImba_Curr               
1     000096dc  _Curr_Har1_d                        
1     000096de  _Curr_Har1_q                        
1     000096e0  _Curr_Har1_df                       
1     000096e2  _Curr_Har1_qf                       
1     000096e4  _Curr_Har1_dErr                     
1     000096e6  _Curr_Har1_qErr                     
1     000096e8  _Curr_Har1_dErrtotal                
1     000096ea  _Curr_Har1_qErrtotal                
1     000096ec  _Curr_Har1_alOut                    
1     000096ee  _Curr_Har1_beOut                    
1     000096f0  _Curr_Har1_Loop_Kp                  
1     000096f2  _Curr_Har1_Loop_Ki                  
1     000096f4  _Curr_Har1_Loop_Lim                 
1     000096f6  _Curr_Har1_dLoop_Out                
1     000096f8  _Curr_Har1_qLoop_Out                
1     000096fa  _Curr_Har2_d                        
1     000096fc  _Curr_Har2_q                        
1     000096fe  _Curr_Har2_df                       
1     00009700  _Curr_Har2_qf                       
1     00009702  _Curr_Har2_dErr                     
1     00009704  _Curr_Har2_qErr                     
1     00009706  _Curr_Har2_dErrtotal                
1     00009708  _Curr_Har2_qErrtotal                
1     0000970a  _Curr_Har2_alOut                    
1     0000970c  _Curr_Har2_beOut                    
1     0000970e  _Curr_Har2_Loop_Kp                  
1     00009710  _Curr_Har2_Loop_Ki                  
1     00009712  _Curr_Har2_Loop_Lim                 
1     00009714  _Curr_Har2_dLoop_Out                
1     00009716  _Curr_Har2_qLoop_Out                
1     00009718  _VoltFrontfeed_Coeff                
1     0000971a  _CurrFrontfeed_Coeff                
1     0000971c  _KVARRef_Sys                        
1     0000971e  _KWRefRef_Sys                       
1     00009720  _KVARRef_CAN                        
1     00009722  _KWRefRef_CAN                       
1     00009724  _KVARRef_PC                         
1     00009726  _KWRefRef_PC                        
1     00009728  _CurrRef_InductLoad                 
1     0000972a  _KwRef                              
1     0000972c  _KW_Lim                             
1     0000972e  _kW_cal_step                        
1     00009730  _KVar_Lim                           
1     00009732  _KVar_filter_Comp                   
1     00009734  _Ig_Lim                             
1     00009736  _IdRef_Outer                        
1     00009738  _IqRef_Outer                        
1     0000973a  _UdRefRef_Outer                     
1     0000973c  _UdRefRefOld_Outer                  
1     0000973e  _IgdRefRef                          
1     00009740  _IgdRef                             
1     00009742  _Igd_Lim                            
1     00009744  _Id_cal_step                        
1     00009746  _IgqRefRef                          
1     00009748  _IgqRef                             
1     0000974a  _Igq_Lim                            
1     0000974c  _Iq_cal_step                        
1     0000974e  _UsdRefRef_Buf                      
1     00009750  _MotorFreqRef_PC                    
1     00009752  _MotorFreqRef_CAN                   
1     00009754  _MotorFreqRef_HMI                   
1     00009756  _UsdRefRef_PC                       
1     00009758  _UsdRefRef_CAN                      
1     0000975a  _UsdRefRef_HMI                      
1     0000975c  _UsdRefRefOld_PC                    
1     0000975e  _UsdRefRefOld_CAN                   
1     00009760  _UsdRefRefOld_HMI                   
1     00009762  _MotorFreqRef                       
1     00009764  _MotorFreqRefOld                    
1     00009766  _FpgaMotorFreq                      
1     00009768  _Ud_cal_step                        
1     0000976a  _Usd_Lim                            
1     0000976c  _UdRef_All                          
1     0000976e  _UqRef_All                          
1     00009770  _UsdRefRef                          
1     00009772  _UsdRef                             
1     00009774  _UsqRefRef                          
1     00009776  _UsqRef                             
1     00009778  _FastChar_HighVolt                  
1     0000977a  _FastChar_AfterVolt                 
1     0000977c  _FastChar_ExitCurrSet               
1     0000977e  _FastChar_Rate                      
1     00009780  _FastChar_RiseStep                  
1     00009782  _FastChar_DownStep                  
1     00009784  _FastChar_UdRefLock                 
1     00009786  _FastChar_UdRefRef                  
1     00009788  _FastChar_UdRef                     
1     0000978a  _FastChar_RiseGiven                 
1     0000978c  _FastChar_DownGiven                 
1     0000978e  _FastChar_UsdOld                    
1     00009790  _FastChar_UsqOld                    
1     00009792  _FastChar_DCOffset                  
1     00009794  _FastChar_CtrlCount                 
1     00009796  _FastChar_HoleCount                 
1     00009798  _FastChar_DownCount                 
1     0000979a  _FastChar_UdCompon                  
1     0000979c  _FastChar_UqCompon                  
1     0000979e  _Udc_SetSet                         
1     000097a0  _Udc_cal_step                       
1     000097a2  _RatedPara_GridVoltage              
1     000097a4  _RatedPara_GridCurrent              
1     000097a6  _RatedPara_GridFrequency            
1     000097a8  _MotorSideCapacity                  
1     000097aa  _MotorSideVoltage                   
1     000097ac  _MotorSideCurrent                   
1     000097ae  _K_IfcForw                          
1     000097b0  _FilterPara_Induct                  
1     000097b2  _FilterPara_Capacity                
1     000097b4  _NPR_AngleCompensation              
1     000097b6  _Para_IoFwdCoeff                    
1     000097b8  _CtrlThr_ChopIn_UdcH                
1     000097ba  _CtrlThr_ChopOut_UdcL               
1     000097bc  _CtrlThr_FanIgbtOn_TempH            
1     000097be  _CtrlThr_FanIgbtOff_TempL           
1     000097c0  _CtrlThr_LockPwm_Ipeak              
1     000097c2  _CtrlThr_UnLockPwm_Ipeak            
1     000097c4  _HeartbeatCheck1                    
1     000097c7  _HeartbeatCheck2                    
1     000097ca  _Conv_List_Ver                      
1     000097fe  _Curr_Har1_EnDelayCount             
1     000097ff  _Curr_Har2_EnDelayCount             
1     00009800  _SCIBRecvBuffer                     
1     00009be0  _DataLog_SaveAnalogCHID             
1     00009c00  _NodeEnergy                         
1     00009d29  _CANARPDO                           
1     00009d39  _MCBSP_Init_1msOld                  
1     00009d3a  _MCBSP_InitCount                    
1     00009d3b  _FlashBufShadow                     
1     00009d42  _gHalCanBaudValue                   
1     00009d44  _gHalCanErrorCount                  
1     00009d46  _gHalCanBusoffCount                 
1     00009dfc  _SendFlag1                          
1     00009dfd  _SendFlag2                          
1     00009dfe  _SendFlag3                          
1     00009dff  _SendFlag4                          
1     00009e00  _NODE_STATE                         
1     00009e01  _PDO_SEND_FLAG                      
1     00009e02  _NMTTimeInterval                    
1     00009e03  _device_name                        
1     00009e04  _data_1005                          
1     00009e05  _data_1006                          
1     00009e06  _data_100C                          
1     00009e07  _data_100D                          
1     00009e08  _Guard_time                         
1     00009e09  _Life_factor                        
1     00009e0a  _CANSend_1ms                        
1     00009e0b  _CANSend_1msOld                     
1     00009e0c  _ECAN_CommFlag                      
1     00009e0d  _CANAMB0SendFront                   
1     00009e0e  _CANAMB0SendTeal                    
1     00009e0f  _ECANA_CH1_SDOIndex                 
1     00009e10  _ECANA_CH1_SDOSubIndex              
1     00009e11  _CANAMB4RecvFront                   
1     00009e12  _CANAMB4RecvTeal                    
1     00009e13  _CANA_CH1_HCount                    
1     00009e14  _CANA_CH1_LCount                    
1     00009e15  _CANAMB5RecvFront                   
1     00009e16  _CANAMB5RecvTeal                    
1     00009e17  _CANA_CH2_HCount                    
1     00009e18  _CANA_CH2_LCount                    
1     00009e19  _CANAMB6RecvFront                   
1     00009e1a  _CANAMB6RecvTeal                    
1     00009e1b  _CANA_CH3_HCount                    
1     00009e1c  _CANA_CH3_LCount                    
1     00009e1d  _CANAMB7RecvFront                   
1     00009e1e  _CANAMB7RecvTeal                    
1     00009e1f  _CANA_CH4_HCount                    
1     00009e20  _CANA_CH4_LCount                    
1     00009e21  _CANAMB8RecvFront                   
1     00009e22  _CANAMB8RecvTeal                    
1     00009e23  _CANA_CH5_HCount                    
1     00009e24  _CANA_CH5_LCount                    
1     00009e25  _CANBMB0PDOSendFront                
1     00009e26  _CANBMB0PDOSendTeal                 
1     00009e27  _CANBMB0SDOSendFront                
1     00009e28  _CANBMB0SDOSendTeal                 
1     00009e29  _CANBMB4RecvFront                   
1     00009e2a  _CANBMB4RecvTeal                    
1     00009e2b  _CANBMB5RecvFront                   
1     00009e2c  _CANBMB5RecvTeal                    
1     00009e2d  _SCICRecvTail                       
1     00009e2e  _SCICRecvFront                      
1     00009e2f  _SCICSendTail                       
1     00009e30  _SCICSendFront                      
1     00009e31  _Modbus_1ms                         
1     00009e32  _Mon_Recv_Status                    
1     00009e33  _SCIBSendFront                      
1     00009e34  _SCIBSendTail                       
1     00009e35  _SCIBRecvFront                      
1     00009e36  _SCIBRecvTail                       
1     00009e37  _SCIBSend_1ms                       
1     00009e38  _SoftScope_sts                      
1     00009e39  _SoftScope_Counter                  
1     00009e3a  _SoftScope_DataLen                  
1     00009e3b  _SoftScope_OutQueueNum              
1     00009e3c  _SoftScope_SendDataNum              
1     00009e3d  _SoftScope_OnOffCmd                 
1     00009e3e  _SoftScope_SampleInterval           
1     00009e3f  _SoftScope_AnalogCHNum              
1     00009e40  _SoftScope_DigitCHNum               
1     00009e41  _SoftScope_SampleFreq               
1     00009e42  _EventLog_ReadCmd                   
1     00009e43  _EventLog_SaveFront                 
1     00009e44  _EventLog_SaveEnd                   
1     00009e45  _EventLog_Test                      
1     00009e46  _EventLogStep                       
1     00009e47  _EventLog_HardReset                 
1     00009e48  _DataLog_CtrlCmd                    
1     00009e49  _DataLog_TrigMode                   
1     00009e4a  _DataLog_ManTrigCmd                 
1     00009e4b  _DataLog_AnalagCHNum                
1     00009e4c  _DataLog_DigitCHNum                 
1     00009e4d  _DataLog_SampPeriod                 
1     00009e4e  _DataLog_Savepers                   
1     00009e4f  _DataLog_TrigAnalogCHEnSet          
1     00009e50  _DataLog_TrigAnalogCHModeSet        
1     00009e51  _DataLog_TrigDigitCHEnSet           
1     00009e52  _DataLog_TrigDigitCHModeSet         
1     00009e53  _DataLog_ReadCmd                    
1     00009e54  _DataLog_PermitMaxNum               
1     00009e55  _DataLog_TotalNum                   
1     00009e56  _DataLog_NewestNum                  
1     00009e57  _DataLog_NewestNumOld               
1     00009e58  _DataLog_IndexSendNum               
1     00009e59  _DataLog_DataSendNum                
1     00009e5a  _DataLog_NumCount                   
1     00009e5b  _DataLog_TrigDigitValueOld          
1     00009e5c  _DataLog_SaveStepCount              
1     00009e5d  _DataLogStep                        
1     00009e5e  _ParaDownloadCtrlWord               
1     00009e5f  _ParaDownloadFaultNum               
1     00009e60  _SRAM_RandomRead_Value              
1     00009e61  _SPI_EEPRPM_BusyStatus              
1     00009e62  _SPIaddrPage                        
1     00009e63  _SPIaddrOffset                      
1     00009e64  _EEPROMWriteCtrl                    
1     00009e65  _EEPROMReadCtrl                     
1     00009e66  _EEPROMAceNum                       
1     00009e67  _RTCAccessStatus                    
1     00009e68  _SysTime_Second                     
1     00009e69  _SysTime_Minute                     
1     00009e6a  _SysTime_Hour                       
1     00009e6b  _SysTime_Day                        
1     00009e6c  _SysTime_Month                      
1     00009e6d  _SysTime_Year                       
1     00009e6e  _SysTime_MicroSecond                
1     00009e6f  _RealTime1ms                        
1     00009e70  _Flash_Capacity                     
1     00009e71  _Flash_Step                         
1     00009e72  _Flash_SubStep                      
1     00009e73  _Flash_Access_1ms                   
1     00009e74  _Modbus_RecvFront                   
1     00009e75  _Modbus_RecvTail                    
1     00009e76  _Modbus_SendFront                   
1     00009e77  _Modbus_SendTail                    
1     00009e78  _SoftScope_FSNCount                 
1     00009e7a  _EventLog_ReadFromNum               
1     00009e7c  _EventLog_ReadEndNum                
1     00009e7e  _EventLog_ReadCurrNum               
1     00009e80  _EventLog_ReadDeltaNum              
1     00009e82  _EventLog_SendedNum                 
1     00009e84  _EventLog_TotalNum                  
1     00009e86  _EventLog_NewestNum                 
1     00009e88  _EventLog_NewestNumOld              
1     00009e8a  _EventLog_PermitMaxNum              
1     00009e8c  _DataLog_ReadEndNum                 
1     00009e8e  _DataLog_ReadFromNum                
1     00009e90  _SRAM_RandomRead_Addr               
1     00009e92  _SRAM_RandomRead_LValue             
1     00009e94  _ulRealTimeSecond                   
1     00009e96  _ulRealTimeSecondSet                
1     00009e98  _Time_H                             
1     00009e9a  _Time_L                             
1     00009e9c  _Flash_Access_Ctrl                  
1     00009e9e  _Flash_Fault_Count1ms               
1     00009ea0  _DataLog_SaveDigitCHBit             
1     00009f60  _DataLog_SaveDigitCHID              
1     00009f80  _DataLog_ChannelSend                
1     0000a002  _Conv_Type_Ver                      
1     0000a036  _NMT_COMM                           
1     0000a037  _NMT_COMMOld                        
1     0000a038  _CANBSendReset_1ms                  
1     0000a039  _CANBSendRepeat_1ms                 
1     0000a03a  _CANBSendGP_1ms                     
1     0000a03b  _NODE_ID                            
1     0000a03c  _CanBSendCtrl                       
1     0000a040  _DataLog_Trig                       
1     0000a0c2  _RTM_File_Ver                       
1     0000a0f6  _FPGA_Ver                           
1     0000a100  _EventLog_ReadBuf                   
1     0000a180  _EventLog_SaveBuf                   
1     0000a200  _Modbus_RecvBuffer                  
1     0000a280  _Modbus_SendBuffer                  
1     0000a300  _SPIBuffer                          
1     0000a380  _fCycBuf                            
1     0000a400  _fIsrBuf                            
1     0000a480  _iCycBuf                            
1     0000a500  _iIsrBuf                            
1     0000a580  _lCycBuf                            
1     0000a600  _lIsrBuf                            
1     0000a680  _sBalanceDataGroup                  
1     0000a683  _sThdDataGroup                      
1     0000a689  _sPowerDataGroup                    
1     0000a6c0  _sEnergyDataGroup                   
1     0000a6fd  _EventLog_BufCount                  
1     0000a6fe  _EventLog_PageAddrOld               
1     0000a700  _CANAMB0SendBuffer                  
1     0000a760  _InputRegBuf                        
1     0000a780  _DataLog_AnalogAddr                 
1     0000a7c0  _DataLog_DigitAddr                  
1     0000a800  _Soft_Ver                           
1     0000a834  _DataLog_1msOld                     
1     0000a835  _DataLogTran_1msOld                 
1     0000a836  _DataLog_SampleCount                
1     0000a837  _DataLog_DelayCount                 
1     0000a838  _DataLog_SaveCHNum                  
1     0000a83a  _DataLog_ReadPoint                  
1     0000a83c  _DataLog_Fsn                        
1     0000a83e  _DataLog_PageAddrOld                
1     0000a840  _HoldRegBuf                         
1     0000a876  _ghalTimer0Callback                 
1     0000a87c  _MCS2MPRSend_1msOld                 
1     0000a87d  _MCS2MPRSend_1msOld_forNode         
1     0000a87e  _MCS2MPR_SDOCycleSendIndexCount     
1     0000a87f  _MCS2MPR_SDOCycleSendSubindexCount  
1     0000a880  _SoftScope_buffer                   
1     0000a8b2  _Flash_PSNSerial                    
1     0000a8bb  _MCS2MPR_NodeID                     
1     0000a8bc  _BaundNum                           
1     0000a8bd  _ECANB_PDOTimeInterval              
1     0000a8be  _MCS2MPR_SDOTimeInterval            
1     0000a8bf  _MCS2MPR_Reserved                   
1     0000a8c0  _CANBMB0PDOSendBuffer               
1     0000a8f0  _CANATPDO                           
1     0000a900  _CANBMB0SDOSendBuffer               
1     0000a930  _CANBRPDO                           
1     0000a940  _CANBMB4RecvBuffer                  
1     0000a970  _CANBTPDO                           
1     0000a980  _CANBMB5RecvBuffer                  
1     0000a9b0  _InterADValue                       
1     0000a9e8  _CpuTimer0                          
1     0000a9f0  _CpuTimer1                          
1     0000a9f8  _CpuTimer2                          
1     0000aa00  _GroupCtrl                          
1     0000aa23  _ParaDownloadCtrlWordOld            
1     0000aa40  _ResSample                          
1     0000aa60  _TemprCalc                          
1     0000aa80  _VolSample                          
1     0000aaa0  _CANAMB4RecvBuffer                  
1     0000aab8  _DataLog_TrigAnalogAddr             
1     0000aac0  _CANAMB5RecvBuffer                  
1     0000aad8  _CANAMB6RecvBuffer                  
1     0000aaf0  _Monitor_ADDR                       
1     0000ab00  _CANAMB7RecvBuffer                  
1     0000ab18  _CANAMB8RecvBuffer                  
1     0000ab30  _NTC_tempf                          
1     0000ab40  _SoftScope_AnalogChaddr             
1     0000ab50  _SoftScope_DigitChaddr              
1     0000ab60  _DataLog_TrigDigitAddr              
1     0000ab68  _SoftScope_AnalogChID               
1     0000ab70  _SoftScope_DigitChBit               
1     0000ab78  _SoftScope_DigitChID                
1     0000ab88  _ECANA_CH2_NodeID                   
1     0000ab89  _ECANA_MPR2NPR_NodeID               
1     0000ab8a  _ECANA_Reserved                     
1     0000ab8b  _ECANA_Toggle                       
1     0000ab8c  _ECANA_PDOTimeInterval              
1     0000ab8d  _ECANA_NMTTimeInterval              
1     0000ab8e  _MonTx_EndReal                      
1     0000ab8f  _MonTx_1msValueOld                  
1     0000ab90  _MonTx_Flag                         
1     0000ab91  _MonTx_1msCount                     
1     0000ab92  _MonTx_BusyCount                    
1     0000ab93  _TxPINFlag                          
1     0000ab94  ___TI_enable_exit_profile_output    
1     0000ab96  ___TI_cleanup_ptr                   
1     0000ab98  ___TI_dtors_ptr                     
1     0000ab9a  _BOARD_ADDR                         
1     0000ab9b  _RTM_Reserved                       
1     0000ab9c  _RTM_fReserved                      
1     0000ab9e  _DataLog_TrigAnalogCHID             
1     0000aba2  _DataLog_TrigAnalogCHThr            
1     0000aba6  _DataLog_TrigAnalogValueOld         
1     0000abaa  _DataLog_TrigDigitCHBit             
1     0000abae  _DataLog_TrigDigitCHID              
1     0000abb2  _RTUGroup                           
1     0000abb6  _SpCAN_CallbackTx                   
1     0000abc0  _CANA_Send_Busy                     
1     0000abc1  _CANASendReset_1ms                  
1     0000abc2  _CANASendGP_1ms                     
1     0000abc3  _Flash_MID                          
1     0000abd0  __lock                              
1     0000abd2  __unlock                            
1     0000abd6  _RTU_Reserved                       
1     0000abd7  _SCope_Time1msOld                   
1     0000f000  _SDSendBuff                         
1     0000f0c0  _SDRecvBuff                         
1     00200000  _DataLog_Buf                        
1     0022bf40  _DataLog_SendBuf                    
1     0033fff8  _CsmPwl                             
1     00380090  _PartIdRegs                         
abs   00000300  __STACK_SIZE                        
abs   ffffffff  ___TI_pprof_out_hndl                
abs   ffffffff  ___TI_prof_data_size                
abs   ffffffff  ___TI_prof_data_start               
abs   ffffffff  ___binit__                          
abs   ffffffff  ___c_args__                         
abs   ffffffff  ___pinit__                          
abs   ffffffff  binit                               
abs   ffffffff  pinit                               

[1405 symbols]
